
1.elf:     file format elf32-avr

Sections:
Idx Name          Size      VMA       LMA       File off  Algn
  0 .data         00000122  00800100  00002478  0000250c  2**0
                  CONTENTS, ALLOC, LOAD, DATA
  1 .text         00002478  00000000  00000000  00000094  2**1
                  CONTENTS, ALLOC, LOAD, READONLY, CODE
  2 .bss          0000001c  00800222  00800222  0000262e  2**0
                  ALLOC
  3 .debug_aranges 00000100  00000000  00000000  0000262e  2**0
                  CONTENTS, READONLY, DEBUGGING
  4 .debug_pubnames 00000378  00000000  00000000  0000272e  2**0
                  CONTENTS, READONLY, DEBUGGING
  5 .debug_info   00001b90  00000000  00000000  00002aa6  2**0
                  CONTENTS, READONLY, DEBUGGING
  6 .debug_abbrev 00000c6f  00000000  00000000  00004636  2**0
                  CONTENTS, READONLY, DEBUGGING
  7 .debug_line   000012da  00000000  00000000  000052a5  2**0
                  CONTENTS, READONLY, DEBUGGING
  8 .debug_frame  00000300  00000000  00000000  00006580  2**2
                  CONTENTS, READONLY, DEBUGGING
  9 .debug_str    0000059a  00000000  00000000  00006880  2**0
                  CONTENTS, READONLY, DEBUGGING
 10 .debug_loc    00000b47  00000000  00000000  00006e1a  2**0
                  CONTENTS, READONLY, DEBUGGING
 11 .debug_ranges 00000068  00000000  00000000  00007961  2**0
                  CONTENTS, READONLY, DEBUGGING

Disassembly of section .text:

00000000 <__vectors>:
       0:	0c 94 ee 00 	jmp	0x1dc	; 0x1dc <__ctors_end>
       4:	0c 94 0d 01 	jmp	0x21a	; 0x21a <__bad_interrupt>
       8:	0c 94 0d 01 	jmp	0x21a	; 0x21a <__bad_interrupt>
       c:	0c 94 0d 01 	jmp	0x21a	; 0x21a <__bad_interrupt>
      10:	0c 94 0d 01 	jmp	0x21a	; 0x21a <__bad_interrupt>
      14:	0c 94 0d 01 	jmp	0x21a	; 0x21a <__bad_interrupt>
      18:	0c 94 0d 01 	jmp	0x21a	; 0x21a <__bad_interrupt>
      1c:	0c 94 0d 01 	jmp	0x21a	; 0x21a <__bad_interrupt>
      20:	0c 94 0d 01 	jmp	0x21a	; 0x21a <__bad_interrupt>
      24:	0c 94 0d 01 	jmp	0x21a	; 0x21a <__bad_interrupt>
      28:	0c 94 0d 01 	jmp	0x21a	; 0x21a <__bad_interrupt>
      2c:	0c 94 0d 01 	jmp	0x21a	; 0x21a <__bad_interrupt>
      30:	0c 94 0d 01 	jmp	0x21a	; 0x21a <__bad_interrupt>
      34:	0c 94 0d 01 	jmp	0x21a	; 0x21a <__bad_interrupt>
      38:	0c 94 0d 01 	jmp	0x21a	; 0x21a <__bad_interrupt>
      3c:	0c 94 f7 01 	jmp	0x3ee	; 0x3ee <__vector_15>
      40:	0c 94 0d 01 	jmp	0x21a	; 0x21a <__bad_interrupt>
      44:	0c 94 0d 01 	jmp	0x21a	; 0x21a <__bad_interrupt>
      48:	0c 94 0d 01 	jmp	0x21a	; 0x21a <__bad_interrupt>
      4c:	0c 94 0d 01 	jmp	0x21a	; 0x21a <__bad_interrupt>
      50:	0c 94 0d 01 	jmp	0x21a	; 0x21a <__bad_interrupt>
      54:	0c 94 0d 01 	jmp	0x21a	; 0x21a <__bad_interrupt>
      58:	0c 94 0d 01 	jmp	0x21a	; 0x21a <__bad_interrupt>
      5c:	0c 94 0d 01 	jmp	0x21a	; 0x21a <__bad_interrupt>
      60:	0c 94 0d 01 	jmp	0x21a	; 0x21a <__bad_interrupt>
      64:	0c 94 0d 01 	jmp	0x21a	; 0x21a <__bad_interrupt>
      68:	0c 94 0d 01 	jmp	0x21a	; 0x21a <__bad_interrupt>
      6c:	0c 94 0d 01 	jmp	0x21a	; 0x21a <__bad_interrupt>
      70:	0c 94 0d 01 	jmp	0x21a	; 0x21a <__bad_interrupt>
      74:	0c 94 0d 01 	jmp	0x21a	; 0x21a <__bad_interrupt>
      78:	0c 94 0d 01 	jmp	0x21a	; 0x21a <__bad_interrupt>
      7c:	0c 94 0d 01 	jmp	0x21a	; 0x21a <__bad_interrupt>
      80:	0c 94 0d 01 	jmp	0x21a	; 0x21a <__bad_interrupt>
      84:	0c 94 0d 01 	jmp	0x21a	; 0x21a <__bad_interrupt>
      88:	0c 94 0d 01 	jmp	0x21a	; 0x21a <__bad_interrupt>

0000008c <__c.1790>:
      8c:	6e 61 6e 00                                         nan.

00000090 <__c.1788>:
      90:	69 6e 66 00                                         inf.

00000094 <__c.2085>:
      94:	63 64 69 6e 6f 70 73 75 78 58 5b 65 66 67 45 46     cdinopsuxX[efgEF
      a4:	47 00                                               G.

000000a6 <pstr_an>:
      a6:	61 6e 00                                            an.

000000a9 <pstr_nfinity>:
      a9:	6e 66 69 6e 69 74 79 00                             nfinity.

000000b1 <pwr_m10>:
      b1:	cd cc cc 3d 0a d7 23 3c 17 b7 d1 38 77 cc 2b 32     ...=..#<...8w.+2
      c1:	95 95 e6 24 1f b1 4f 0a                             ...$..O.

000000c9 <pwr_p10>:
      c9:	00 00 20 41 00 00 c8 42 00 40 1c 46 20 bc be 4c     .. A...B.@.F ..L
      d9:	ca 1b 0e 5a ae c5 9d 74 00 40 7a 10 f3 5a 00 a0     ...Z...t.@z..Z..
      e9:	72 4e 18 09 00 10 a5 d4 e8 00 00 e8 76 48 17 00     rN..........vH..
      f9:	00 e4 0b 54 02 00 00 ca 9a 3b 00 00 00 e1 f5 05     ...T.....;......
     109:	00 00 80 96 98 00 00 00 40 42 0f 00 00 00 a0 86     ........@B......
     119:	01 00 00 00 10 27 00 00 00 00 e8 03 00 00 00 00     .....'..........
     129:	64 00 00 00 00 00 0a 00 00 00 00 00 01 00 00 00     d...............
     139:	00 00 2c 76 d8 88 dc 67 4f 08 23 df c1 df ae 59     ..,v...gO.#....Y
     149:	e1 b1 b7 96 e5 e3 e4 53 c6 3a e6 51 99 76 96 e8     .......S.:.Q.v..
     159:	e6 c2 84 26 eb 89 8c 9b 62 ed 40 7c 6f fc ef bc     ...&....b.@|o...
     169:	9c 9f 40 f2 ba a5 6f a5 f4 90 05 5a 2a f7 5c 93     ..@...o....Z*.\.
     179:	6b 6c f9 67 6d c1 1b fc e0 e4 0d 47 fe f5 20 e6     kl.gm......G.. .
     189:	b5 00 d0 ed 90 2e 03 00 94 35 77 05 00 80 84 1e     .........5w.....
     199:	08 00 00 20 4e 0a 00 00 00 c8 0c 33 33 33 33 0f     ... N......3333.
     1a9:	98 6e 12 83 11 41 ef 8d 21 14 89 3b e6 55 16 cf     .n...A..!..;.U..
     1b9:	fe e6 db 18 d1 84 4b 38 1b f7 7c 1d 90 1d a4 bb     ......K8..|.....
     1c9:	e4 24 20 32 84 72 5e 22 81 00 c9 f1 24 ec a1 e5     .$ 2.r^"....$...
     1d9:	3d 27 00                                            ='.

000001dc <__ctors_end>:
     1dc:	11 24       	eor	r1, r1
     1de:	1f be       	out	0x3f, r1	; 63
     1e0:	cf ef       	ldi	r28, 0xFF	; 255
     1e2:	d0 e1       	ldi	r29, 0x10	; 16
     1e4:	de bf       	out	0x3e, r29	; 62
     1e6:	cd bf       	out	0x3d, r28	; 61

000001e8 <__do_copy_data>:
     1e8:	12 e0       	ldi	r17, 0x02	; 2
     1ea:	a0 e0       	ldi	r26, 0x00	; 0
     1ec:	b1 e0       	ldi	r27, 0x01	; 1
     1ee:	e8 e7       	ldi	r30, 0x78	; 120
     1f0:	f4 e2       	ldi	r31, 0x24	; 36
     1f2:	00 e0       	ldi	r16, 0x00	; 0
     1f4:	0b bf       	out	0x3b, r16	; 59
     1f6:	02 c0       	rjmp	.+4      	; 0x1fc <__do_copy_data+0x14>
     1f8:	07 90       	elpm	r0, Z+
     1fa:	0d 92       	st	X+, r0
     1fc:	a2 32       	cpi	r26, 0x22	; 34
     1fe:	b1 07       	cpc	r27, r17
     200:	d9 f7       	brne	.-10     	; 0x1f8 <__do_copy_data+0x10>

00000202 <__do_clear_bss>:
     202:	12 e0       	ldi	r17, 0x02	; 2
     204:	a2 e2       	ldi	r26, 0x22	; 34
     206:	b2 e0       	ldi	r27, 0x02	; 2
     208:	01 c0       	rjmp	.+2      	; 0x20c <.do_clear_bss_start>

0000020a <.do_clear_bss_loop>:
     20a:	1d 92       	st	X+, r1

0000020c <.do_clear_bss_start>:
     20c:	ae 33       	cpi	r26, 0x3E	; 62
     20e:	b1 07       	cpc	r27, r17
     210:	e1 f7       	brne	.-8      	; 0x20a <.do_clear_bss_loop>
     212:	0e 94 0f 01 	call	0x21e	; 0x21e <main>
     216:	0c 94 3a 12 	jmp	0x2474	; 0x2474 <_exit>

0000021a <__bad_interrupt>:
     21a:	0c 94 00 00 	jmp	0	; 0x0 <__vectors>

0000021e <main>:
#include "ASA_Lib.h"

int main(void)
{
	ASA_M128_set();
     21e:	0e 94 9f 02 	call	0x53e	; 0x53e <ASA_M128_set>

	while(1)
	{
		printf("Hello World\n");
     222:	80 e0       	ldi	r24, 0x00	; 0
     224:	91 e0       	ldi	r25, 0x01	; 1
     226:	0e 94 8a 11 	call	0x2314	; 0x2314 <puts>
     22a:	fb cf       	rjmp	.-10     	; 0x222 <main+0x4>

0000022c <stdio_putchar>:
     22c:	1f 93       	push	r17
     22e:	18 2f       	mov	r17, r24
     230:	8a 30       	cpi	r24, 0x0A	; 10
     232:	19 f4       	brne	.+6      	; 0x23a <stdio_putchar+0xe>
     234:	8d e0       	ldi	r24, 0x0D	; 13
     236:	0e 94 16 01 	call	0x22c	; 0x22c <stdio_putchar>
     23a:	5d 9b       	sbis	0x0b, 5	; 11
     23c:	fe cf       	rjmp	.-4      	; 0x23a <stdio_putchar+0xe>
     23e:	1c b9       	out	0x0c, r17	; 12
     240:	80 e0       	ldi	r24, 0x00	; 0
     242:	90 e0       	ldi	r25, 0x00	; 0
     244:	1f 91       	pop	r17
     246:	08 95       	ret

00000248 <stdio_getchar>:
     248:	1f 93       	push	r17
     24a:	bc 01       	movw	r22, r24
     24c:	5f 9b       	sbis	0x0b, 7	; 11
     24e:	fe cf       	rjmp	.-4      	; 0x24c <stdio_getchar+0x4>
     250:	1c b1       	in	r17, 0x0c	; 12
     252:	81 2f       	mov	r24, r17
     254:	0e 94 16 01 	call	0x22c	; 0x22c <stdio_putchar>
     258:	81 2f       	mov	r24, r17
     25a:	90 e0       	ldi	r25, 0x00	; 0
     25c:	1f 91       	pop	r17
     25e:	08 95       	ret

00000260 <DIO_fpt>:
     260:	38 2f       	mov	r19, r24
     262:	84 30       	cpi	r24, 0x04	; 4
     264:	10 f0       	brcs	.+4      	; 0x26a <DIO_fpt+0xa>
     266:	81 e0       	ldi	r24, 0x01	; 1
     268:	08 95       	ret
     26a:	48 30       	cpi	r20, 0x08	; 8
     26c:	10 f0       	brcs	.+4      	; 0x272 <DIO_fpt+0x12>
     26e:	82 e0       	ldi	r24, 0x02	; 2
     270:	08 95       	ret
     272:	82 2f       	mov	r24, r18
     274:	90 e0       	ldi	r25, 0x00	; 0
     276:	02 c0       	rjmp	.+4      	; 0x27c <DIO_fpt+0x1c>
     278:	88 0f       	add	r24, r24
     27a:	99 1f       	adc	r25, r25
     27c:	4a 95       	dec	r20
     27e:	e2 f7       	brpl	.-8      	; 0x278 <DIO_fpt+0x18>
     280:	28 2f       	mov	r18, r24
     282:	31 30       	cpi	r19, 0x01	; 1
     284:	89 f0       	breq	.+34     	; 0x2a8 <DIO_fpt+0x48>
     286:	31 30       	cpi	r19, 0x01	; 1
     288:	28 f0       	brcs	.+10     	; 0x294 <DIO_fpt+0x34>
     28a:	32 30       	cpi	r19, 0x02	; 2
     28c:	b9 f0       	breq	.+46     	; 0x2bc <DIO_fpt+0x5c>
     28e:	33 30       	cpi	r19, 0x03	; 3
     290:	f1 f4       	brne	.+60     	; 0x2ce <DIO_fpt+0x6e>
     292:	1f c0       	rjmp	.+62     	; 0x2d2 <DIO_fpt+0x72>
     294:	8a b3       	in	r24, 0x1a	; 26
     296:	86 2b       	or	r24, r22
     298:	8a bb       	out	0x1a, r24	; 26
     29a:	8b b3       	in	r24, 0x1b	; 27
     29c:	26 23       	and	r18, r22
     29e:	60 95       	com	r22
     2a0:	86 23       	and	r24, r22
     2a2:	28 2b       	or	r18, r24
     2a4:	2b bb       	out	0x1b, r18	; 27
     2a6:	13 c0       	rjmp	.+38     	; 0x2ce <DIO_fpt+0x6e>
     2a8:	87 b3       	in	r24, 0x17	; 23
     2aa:	86 2b       	or	r24, r22
     2ac:	87 bb       	out	0x17, r24	; 23
     2ae:	88 b3       	in	r24, 0x18	; 24
     2b0:	26 23       	and	r18, r22
     2b2:	60 95       	com	r22
     2b4:	86 23       	and	r24, r22
     2b6:	28 2b       	or	r18, r24
     2b8:	28 bb       	out	0x18, r18	; 24
     2ba:	09 c0       	rjmp	.+18     	; 0x2ce <DIO_fpt+0x6e>
     2bc:	84 b3       	in	r24, 0x14	; 20
     2be:	86 2b       	or	r24, r22
     2c0:	84 bb       	out	0x14, r24	; 20
     2c2:	85 b3       	in	r24, 0x15	; 21
     2c4:	26 23       	and	r18, r22
     2c6:	60 95       	com	r22
     2c8:	86 23       	and	r24, r22
     2ca:	28 2b       	or	r18, r24
     2cc:	25 bb       	out	0x15, r18	; 21
     2ce:	80 e0       	ldi	r24, 0x00	; 0
     2d0:	08 95       	ret
     2d2:	82 b1       	in	r24, 0x02	; 2
     2d4:	86 2b       	or	r24, r22
     2d6:	82 b9       	out	0x02, r24	; 2
     2d8:	83 b1       	in	r24, 0x03	; 3
     2da:	26 23       	and	r18, r22
     2dc:	60 95       	com	r22
     2de:	86 23       	and	r24, r22
     2e0:	28 2b       	or	r18, r24
     2e2:	23 b9       	out	0x03, r18	; 3
     2e4:	80 e0       	ldi	r24, 0x00	; 0
     2e6:	08 95       	ret

000002e8 <DIO_fgt>:
     2e8:	f9 01       	movw	r30, r18
     2ea:	84 30       	cpi	r24, 0x04	; 4
     2ec:	10 f0       	brcs	.+4      	; 0x2f2 <DIO_fgt+0xa>
     2ee:	81 e0       	ldi	r24, 0x01	; 1
     2f0:	08 95       	ret
     2f2:	48 30       	cpi	r20, 0x08	; 8
     2f4:	10 f0       	brcs	.+4      	; 0x2fa <DIO_fgt+0x12>
     2f6:	82 e0       	ldi	r24, 0x02	; 2
     2f8:	08 95       	ret
     2fa:	81 30       	cpi	r24, 0x01	; 1
     2fc:	b9 f0       	breq	.+46     	; 0x32c <DIO_fgt+0x44>
     2fe:	81 30       	cpi	r24, 0x01	; 1
     300:	28 f0       	brcs	.+10     	; 0x30c <DIO_fgt+0x24>
     302:	82 30       	cpi	r24, 0x02	; 2
     304:	19 f1       	breq	.+70     	; 0x34c <DIO_fgt+0x64>
     306:	83 30       	cpi	r24, 0x03	; 3
     308:	c1 f5       	brne	.+112    	; 0x37a <DIO_fgt+0x92>
     30a:	39 c0       	rjmp	.+114    	; 0x37e <DIO_fgt+0x96>
     30c:	8a b3       	in	r24, 0x1a	; 26
     30e:	88 23       	and	r24, r24
     310:	29 f0       	breq	.+10     	; 0x31c <DIO_fgt+0x34>
     312:	9a b3       	in	r25, 0x1a	; 26
     314:	86 2f       	mov	r24, r22
     316:	80 95       	com	r24
     318:	89 23       	and	r24, r25
     31a:	05 c0       	rjmp	.+10     	; 0x326 <DIO_fgt+0x3e>
     31c:	8a b3       	in	r24, 0x1a	; 26
     31e:	88 23       	and	r24, r24
     320:	19 f4       	brne	.+6      	; 0x328 <DIO_fgt+0x40>
     322:	86 2f       	mov	r24, r22
     324:	80 95       	com	r24
     326:	8a bb       	out	0x1a, r24	; 26
     328:	89 b3       	in	r24, 0x19	; 25
     32a:	1f c0       	rjmp	.+62     	; 0x36a <DIO_fgt+0x82>
     32c:	87 b3       	in	r24, 0x17	; 23
     32e:	88 23       	and	r24, r24
     330:	29 f0       	breq	.+10     	; 0x33c <DIO_fgt+0x54>
     332:	97 b3       	in	r25, 0x17	; 23
     334:	86 2f       	mov	r24, r22
     336:	80 95       	com	r24
     338:	89 23       	and	r24, r25
     33a:	05 c0       	rjmp	.+10     	; 0x346 <DIO_fgt+0x5e>
     33c:	87 b3       	in	r24, 0x17	; 23
     33e:	88 23       	and	r24, r24
     340:	19 f4       	brne	.+6      	; 0x348 <DIO_fgt+0x60>
     342:	86 2f       	mov	r24, r22
     344:	80 95       	com	r24
     346:	87 bb       	out	0x17, r24	; 23
     348:	86 b3       	in	r24, 0x16	; 22
     34a:	0f c0       	rjmp	.+30     	; 0x36a <DIO_fgt+0x82>
     34c:	84 b3       	in	r24, 0x14	; 20
     34e:	88 23       	and	r24, r24
     350:	29 f0       	breq	.+10     	; 0x35c <DIO_fgt+0x74>
     352:	94 b3       	in	r25, 0x14	; 20
     354:	86 2f       	mov	r24, r22
     356:	80 95       	com	r24
     358:	89 23       	and	r24, r25
     35a:	05 c0       	rjmp	.+10     	; 0x366 <DIO_fgt+0x7e>
     35c:	84 b3       	in	r24, 0x14	; 20
     35e:	88 23       	and	r24, r24
     360:	19 f4       	brne	.+6      	; 0x368 <DIO_fgt+0x80>
     362:	86 2f       	mov	r24, r22
     364:	80 95       	com	r24
     366:	84 bb       	out	0x14, r24	; 20
     368:	83 b3       	in	r24, 0x13	; 19
     36a:	86 23       	and	r24, r22
     36c:	90 e0       	ldi	r25, 0x00	; 0
     36e:	02 c0       	rjmp	.+4      	; 0x374 <DIO_fgt+0x8c>
     370:	95 95       	asr	r25
     372:	87 95       	ror	r24
     374:	4a 95       	dec	r20
     376:	e2 f7       	brpl	.-8      	; 0x370 <DIO_fgt+0x88>
     378:	80 83       	st	Z, r24
     37a:	80 e0       	ldi	r24, 0x00	; 0
     37c:	08 95       	ret
     37e:	82 b1       	in	r24, 0x02	; 2
     380:	88 23       	and	r24, r24
     382:	29 f0       	breq	.+10     	; 0x38e <DIO_fgt+0xa6>
     384:	92 b1       	in	r25, 0x02	; 2
     386:	86 2f       	mov	r24, r22
     388:	80 95       	com	r24
     38a:	89 23       	and	r24, r25
     38c:	05 c0       	rjmp	.+10     	; 0x398 <DIO_fgt+0xb0>
     38e:	82 b1       	in	r24, 0x02	; 2
     390:	88 23       	and	r24, r24
     392:	19 f4       	brne	.+6      	; 0x39a <DIO_fgt+0xb2>
     394:	86 2f       	mov	r24, r22
     396:	80 95       	com	r24
     398:	82 b9       	out	0x02, r24	; 2
     39a:	81 b1       	in	r24, 0x01	; 1
     39c:	86 23       	and	r24, r22
     39e:	90 e0       	ldi	r25, 0x00	; 0
     3a0:	02 c0       	rjmp	.+4      	; 0x3a6 <DIO_fgt+0xbe>
     3a2:	95 95       	asr	r25
     3a4:	87 95       	ror	r24
     3a6:	4a 95       	dec	r20
     3a8:	e2 f7       	brpl	.-8      	; 0x3a2 <DIO_fgt+0xba>
     3aa:	80 83       	st	Z, r24
     3ac:	80 e0       	ldi	r24, 0x00	; 0
     3ae:	08 95       	ret

000003b0 <TIM_set>:
     3b0:	12 be       	out	0x32, r1	; 50
     3b2:	82 e0       	ldi	r24, 0x02	; 2
     3b4:	87 bf       	out	0x37, r24	; 55
     3b6:	88 ed       	ldi	r24, 0xD8	; 216
     3b8:	81 bf       	out	0x31, r24	; 49
     3ba:	83 b7       	in	r24, 0x33	; 51
     3bc:	8a 60       	ori	r24, 0x0A	; 10
     3be:	83 bf       	out	0x33, r24	; 51
     3c0:	10 92 37 02 	sts	0x0237, r1
     3c4:	80 e0       	ldi	r24, 0x00	; 0
     3c6:	08 95       	ret

000003c8 <TIMISR_reg>:
     3c8:	20 91 37 02 	lds	r18, 0x0237
     3cc:	2a 30       	cpi	r18, 0x0A	; 10
     3ce:	10 f0       	brcs	.+4      	; 0x3d4 <TIMISR_reg+0xc>
     3d0:	81 e0       	ldi	r24, 0x01	; 1
     3d2:	08 95       	ret
     3d4:	e2 2f       	mov	r30, r18
     3d6:	f0 e0       	ldi	r31, 0x00	; 0
     3d8:	ee 0f       	add	r30, r30
     3da:	ff 1f       	adc	r31, r31
     3dc:	ee 5d       	subi	r30, 0xDE	; 222
     3de:	fd 4f       	sbci	r31, 0xFD	; 253
     3e0:	91 83       	std	Z+1, r25	; 0x01
     3e2:	80 83       	st	Z, r24
     3e4:	2f 5f       	subi	r18, 0xFF	; 255
     3e6:	20 93 37 02 	sts	0x0237, r18
     3ea:	80 e0       	ldi	r24, 0x00	; 0
     3ec:	08 95       	ret

000003ee <__vector_15>:
     3ee:	1f 92       	push	r1
     3f0:	0f 92       	push	r0
     3f2:	0f b6       	in	r0, 0x3f	; 63
     3f4:	0f 92       	push	r0
     3f6:	0b b6       	in	r0, 0x3b	; 59
     3f8:	0f 92       	push	r0
     3fa:	11 24       	eor	r1, r1
     3fc:	1f 93       	push	r17
     3fe:	2f 93       	push	r18
     400:	3f 93       	push	r19
     402:	4f 93       	push	r20
     404:	5f 93       	push	r21
     406:	6f 93       	push	r22
     408:	7f 93       	push	r23
     40a:	8f 93       	push	r24
     40c:	9f 93       	push	r25
     40e:	af 93       	push	r26
     410:	bf 93       	push	r27
     412:	ef 93       	push	r30
     414:	ff 93       	push	r31
     416:	10 e0       	ldi	r17, 0x00	; 0
     418:	0b c0       	rjmp	.+22     	; 0x430 <__vector_15+0x42>
     41a:	e1 2f       	mov	r30, r17
     41c:	f0 e0       	ldi	r31, 0x00	; 0
     41e:	ee 0f       	add	r30, r30
     420:	ff 1f       	adc	r31, r31
     422:	ee 5d       	subi	r30, 0xDE	; 222
     424:	fd 4f       	sbci	r31, 0xFD	; 253
     426:	01 90       	ld	r0, Z+
     428:	f0 81       	ld	r31, Z
     42a:	e0 2d       	mov	r30, r0
     42c:	09 95       	icall
     42e:	1f 5f       	subi	r17, 0xFF	; 255
     430:	80 91 37 02 	lds	r24, 0x0237
     434:	18 17       	cp	r17, r24
     436:	88 f3       	brcs	.-30     	; 0x41a <__vector_15+0x2c>
     438:	ff 91       	pop	r31
     43a:	ef 91       	pop	r30
     43c:	bf 91       	pop	r27
     43e:	af 91       	pop	r26
     440:	9f 91       	pop	r25
     442:	8f 91       	pop	r24
     444:	7f 91       	pop	r23
     446:	6f 91       	pop	r22
     448:	5f 91       	pop	r21
     44a:	4f 91       	pop	r20
     44c:	3f 91       	pop	r19
     44e:	2f 91       	pop	r18
     450:	1f 91       	pop	r17
     452:	0f 90       	pop	r0
     454:	0b be       	out	0x3b, r0	; 59
     456:	0f 90       	pop	r0
     458:	0f be       	out	0x3f, r0	; 63
     45a:	0f 90       	pop	r0
     45c:	1f 90       	pop	r1
     45e:	18 95       	reti

00000460 <HMI_Transceiver_get>:
     460:	df 92       	push	r13
     462:	ef 92       	push	r14
     464:	ff 92       	push	r15
     466:	0f 93       	push	r16
     468:	1f 93       	push	r17
     46a:	cf 93       	push	r28
     46c:	df 93       	push	r29
     46e:	08 2f       	mov	r16, r24
     470:	d6 2e       	mov	r13, r22
     472:	e7 2e       	mov	r14, r23
     474:	81 32       	cpi	r24, 0x21	; 33
     476:	10 f0       	brcs	.+4      	; 0x47c <HMI_Transceiver_get+0x1c>
     478:	81 e0       	ldi	r24, 0x01	; 1
     47a:	2a c0       	rjmp	.+84     	; 0x4d0 <HMI_Transceiver_get+0x70>
     47c:	0e 94 34 03 	call	0x668	; 0x668 <PC_getchar>
     480:	8b 3a       	cpi	r24, 0xAB	; 171
     482:	29 f5       	brne	.+74     	; 0x4ce <HMI_Transceiver_get+0x6e>
     484:	0e 94 34 03 	call	0x668	; 0x668 <PC_getchar>
     488:	8b 3a       	cpi	r24, 0xAB	; 171
     48a:	09 f5       	brne	.+66     	; 0x4ce <HMI_Transceiver_get+0x6e>
     48c:	0e 94 34 03 	call	0x668	; 0x668 <PC_getchar>
     490:	8b 3a       	cpi	r24, 0xAB	; 171
     492:	e9 f4       	brne	.+58     	; 0x4ce <HMI_Transceiver_get+0x6e>
     494:	0e 94 34 03 	call	0x668	; 0x668 <PC_getchar>
     498:	f8 2e       	mov	r15, r24
     49a:	18 2f       	mov	r17, r24
     49c:	8d 2d       	mov	r24, r13
     49e:	9e 2d       	mov	r25, r14
     4a0:	9c 01       	movw	r18, r24
     4a2:	e9 01       	movw	r28, r18
     4a4:	04 c0       	rjmp	.+8      	; 0x4ae <HMI_Transceiver_get+0x4e>
     4a6:	0e 94 34 03 	call	0x668	; 0x668 <PC_getchar>
     4aa:	89 93       	st	Y+, r24
     4ac:	18 0f       	add	r17, r24
     4ae:	9e 01       	movw	r18, r28
     4b0:	2d 19       	sub	r18, r13
     4b2:	20 17       	cp	r18, r16
     4b4:	c0 f3       	brcs	.-16     	; 0x4a6 <HMI_Transceiver_get+0x46>
     4b6:	0e 94 34 03 	call	0x668	; 0x668 <PC_getchar>
     4ba:	f0 16       	cp	r15, r16
     4bc:	11 f0       	breq	.+4      	; 0x4c2 <HMI_Transceiver_get+0x62>
     4be:	83 e0       	ldi	r24, 0x03	; 3
     4c0:	07 c0       	rjmp	.+14     	; 0x4d0 <HMI_Transceiver_get+0x70>
     4c2:	81 17       	cp	r24, r17
     4c4:	11 f4       	brne	.+4      	; 0x4ca <HMI_Transceiver_get+0x6a>
     4c6:	80 e0       	ldi	r24, 0x00	; 0
     4c8:	03 c0       	rjmp	.+6      	; 0x4d0 <HMI_Transceiver_get+0x70>
     4ca:	84 e0       	ldi	r24, 0x04	; 4
     4cc:	01 c0       	rjmp	.+2      	; 0x4d0 <HMI_Transceiver_get+0x70>
     4ce:	82 e0       	ldi	r24, 0x02	; 2
     4d0:	df 91       	pop	r29
     4d2:	cf 91       	pop	r28
     4d4:	1f 91       	pop	r17
     4d6:	0f 91       	pop	r16
     4d8:	ff 90       	pop	r15
     4da:	ef 90       	pop	r14
     4dc:	df 90       	pop	r13
     4de:	08 95       	ret

000004e0 <HMI_Transceiver_put>:
     4e0:	ef 92       	push	r14
     4e2:	ff 92       	push	r15
     4e4:	0f 93       	push	r16
     4e6:	1f 93       	push	r17
     4e8:	cf 93       	push	r28
     4ea:	df 93       	push	r29
     4ec:	08 2f       	mov	r16, r24
     4ee:	7b 01       	movw	r14, r22
     4f0:	81 32       	cpi	r24, 0x21	; 33
     4f2:	10 f0       	brcs	.+4      	; 0x4f8 <HMI_Transceiver_put+0x18>
     4f4:	81 e0       	ldi	r24, 0x01	; 1
     4f6:	1c c0       	rjmp	.+56     	; 0x530 <HMI_Transceiver_put+0x50>
     4f8:	8a ea       	ldi	r24, 0xAA	; 170
     4fa:	0e 94 30 03 	call	0x660	; 0x660 <PC_putchar>
     4fe:	8a ea       	ldi	r24, 0xAA	; 170
     500:	0e 94 30 03 	call	0x660	; 0x660 <PC_putchar>
     504:	8a ea       	ldi	r24, 0xAA	; 170
     506:	0e 94 30 03 	call	0x660	; 0x660 <PC_putchar>
     50a:	80 2f       	mov	r24, r16
     50c:	0e 94 30 03 	call	0x660	; 0x660 <PC_putchar>
     510:	10 2f       	mov	r17, r16
     512:	e7 01       	movw	r28, r14
     514:	05 c0       	rjmp	.+10     	; 0x520 <HMI_Transceiver_put+0x40>
     516:	88 81       	ld	r24, Y
     518:	0e 94 30 03 	call	0x660	; 0x660 <PC_putchar>
     51c:	89 91       	ld	r24, Y+
     51e:	18 0f       	add	r17, r24
     520:	9e 01       	movw	r18, r28
     522:	2e 19       	sub	r18, r14
     524:	20 17       	cp	r18, r16
     526:	b8 f3       	brcs	.-18     	; 0x516 <HMI_Transceiver_put+0x36>
     528:	81 2f       	mov	r24, r17
     52a:	0e 94 30 03 	call	0x660	; 0x660 <PC_putchar>
     52e:	80 e0       	ldi	r24, 0x00	; 0
     530:	df 91       	pop	r29
     532:	cf 91       	pop	r28
     534:	1f 91       	pop	r17
     536:	0f 91       	pop	r16
     538:	ff 90       	pop	r15
     53a:	ef 90       	pop	r14
     53c:	08 95       	ret

0000053e <ASA_M128_set>:
     53e:	10 92 90 00 	sts	0x0090, r1
     542:	91 e1       	ldi	r25, 0x11	; 17
     544:	99 b9       	out	0x09, r25	; 9
     546:	8a b1       	in	r24, 0x0a	; 10
     548:	88 61       	ori	r24, 0x18	; 24
     54a:	8a b9       	out	0x0a, r24	; 10
     54c:	e5 e9       	ldi	r30, 0x95	; 149
     54e:	f0 e0       	ldi	r31, 0x00	; 0
     550:	80 81       	ld	r24, Z
     552:	86 60       	ori	r24, 0x06	; 6
     554:	80 83       	st	Z, r24
     556:	10 92 98 00 	sts	0x0098, r1
     55a:	90 93 99 00 	sts	0x0099, r25
     55e:	ea e9       	ldi	r30, 0x9A	; 154
     560:	f0 e0       	ldi	r31, 0x00	; 0
     562:	80 81       	ld	r24, Z
     564:	88 61       	ori	r24, 0x18	; 24
     566:	80 83       	st	Z, r24
     568:	ed e9       	ldi	r30, 0x9D	; 157
     56a:	f0 e0       	ldi	r31, 0x00	; 0
     56c:	80 81       	ld	r24, Z
     56e:	86 60       	ori	r24, 0x06	; 6
     570:	80 83       	st	Z, r24
     572:	8c e0       	ldi	r24, 0x0C	; 12
     574:	91 e0       	ldi	r25, 0x01	; 1
     576:	90 93 3b 02 	sts	0x023B, r25
     57a:	80 93 3a 02 	sts	0x023A, r24
     57e:	90 93 39 02 	sts	0x0239, r25
     582:	80 93 38 02 	sts	0x0238, r24
     586:	87 b3       	in	r24, 0x17	; 23
     588:	80 6e       	ori	r24, 0xE0	; 224
     58a:	87 bb       	out	0x17, r24	; 23
     58c:	80 e0       	ldi	r24, 0x00	; 0
     58e:	0e 94 d1 02 	call	0x5a2	; 0x5a2 <ASA_ID_set>
     592:	80 e0       	ldi	r24, 0x00	; 0
     594:	08 95       	ret

00000596 <ASA_ID_check>:
     596:	90 e0       	ldi	r25, 0x00	; 0
     598:	88 30       	cpi	r24, 0x08	; 8
     59a:	08 f0       	brcs	.+2      	; 0x59e <ASA_ID_check+0x8>
     59c:	91 e0       	ldi	r25, 0x01	; 1
     59e:	89 2f       	mov	r24, r25
     5a0:	08 95       	ret

000005a2 <ASA_ID_set>:
     5a2:	98 2f       	mov	r25, r24
     5a4:	88 30       	cpi	r24, 0x08	; 8
     5a6:	10 f0       	brcs	.+4      	; 0x5ac <ASA_ID_set+0xa>
     5a8:	81 e0       	ldi	r24, 0x01	; 1
     5aa:	08 95       	ret
     5ac:	88 b3       	in	r24, 0x18	; 24
     5ae:	92 95       	swap	r25
     5b0:	99 0f       	add	r25, r25
     5b2:	90 7e       	andi	r25, 0xE0	; 224
     5b4:	8f 71       	andi	r24, 0x1F	; 31
     5b6:	89 2b       	or	r24, r25
     5b8:	88 bb       	out	0x18, r24	; 24
     5ba:	80 e0       	ldi	r24, 0x00	; 0
     5bc:	08 95       	ret

000005be <UART1_putchar>:
     5be:	98 2f       	mov	r25, r24
     5c0:	80 91 9b 00 	lds	r24, 0x009B
     5c4:	85 ff       	sbrs	r24, 5
     5c6:	fc cf       	rjmp	.-8      	; 0x5c0 <UART1_putchar+0x2>
     5c8:	90 93 9c 00 	sts	0x009C, r25
     5cc:	83 eb       	ldi	r24, 0xB3	; 179
     5ce:	92 e0       	ldi	r25, 0x02	; 2
     5d0:	01 97       	sbiw	r24, 0x01	; 1
     5d2:	f1 f7       	brne	.-4      	; 0x5d0 <UART1_putchar+0x12>
     5d4:	08 95       	ret

000005d6 <UART1_getchar>:
     5d6:	80 91 9b 00 	lds	r24, 0x009B
     5da:	87 ff       	sbrs	r24, 7
     5dc:	fc cf       	rjmp	.-8      	; 0x5d6 <UART1_getchar>
     5de:	80 91 9c 00 	lds	r24, 0x009C
     5e2:	08 95       	ret

000005e4 <SPI_Transfer>:
     5e4:	8f b9       	out	0x0f, r24	; 15
     5e6:	77 9b       	sbis	0x0e, 7	; 14
     5e8:	fe cf       	rjmp	.-4      	; 0x5e6 <SPI_Transfer+0x2>
     5ea:	8f b1       	in	r24, 0x0f	; 15
     5ec:	08 95       	ret

000005ee <SPI_Receive>:
     5ee:	1f b8       	out	0x0f, r1	; 15
     5f0:	77 9b       	sbis	0x0e, 7	; 14
     5f2:	fe cf       	rjmp	.-4      	; 0x5f0 <SPI_Receive+0x2>
     5f4:	8f b1       	in	r24, 0x0f	; 15
     5f6:	08 95       	ret

000005f8 <ASA_putchar>:
     5f8:	1f 93       	push	r17
     5fa:	16 2f       	mov	r17, r22
     5fc:	0e 94 d1 02 	call	0x5a2	; 0x5a2 <ASA_ID_set>
     600:	8d e3       	ldi	r24, 0x3D	; 61
     602:	93 e0       	ldi	r25, 0x03	; 3
     604:	01 97       	sbiw	r24, 0x01	; 1
     606:	f1 f7       	brne	.-4      	; 0x604 <ASA_putchar+0xc>
     608:	80 91 9b 00 	lds	r24, 0x009B
     60c:	85 ff       	sbrs	r24, 5
     60e:	fc cf       	rjmp	.-8      	; 0x608 <ASA_putchar+0x10>
     610:	10 93 9c 00 	sts	0x009C, r17
     614:	83 eb       	ldi	r24, 0xB3	; 179
     616:	92 e0       	ldi	r25, 0x02	; 2
     618:	01 97       	sbiw	r24, 0x01	; 1
     61a:	f1 f7       	brne	.-4      	; 0x618 <ASA_putchar+0x20>
     61c:	80 e0       	ldi	r24, 0x00	; 0
     61e:	1f 91       	pop	r17
     620:	08 95       	ret

00000622 <ASA_getchar>:
     622:	cf 93       	push	r28
     624:	df 93       	push	r29
     626:	eb 01       	movw	r28, r22
     628:	0e 94 d1 02 	call	0x5a2	; 0x5a2 <ASA_ID_set>
     62c:	8d e3       	ldi	r24, 0x3D	; 61
     62e:	93 e0       	ldi	r25, 0x03	; 3
     630:	01 97       	sbiw	r24, 0x01	; 1
     632:	f1 f7       	brne	.-4      	; 0x630 <ASA_getchar+0xe>
     634:	20 e0       	ldi	r18, 0x00	; 0
     636:	30 e0       	ldi	r19, 0x00	; 0
     638:	08 c0       	rjmp	.+16     	; 0x64a <ASA_getchar+0x28>
     63a:	2f 5f       	subi	r18, 0xFF	; 255
     63c:	3f 4f       	sbci	r19, 0xFF	; 255
     63e:	8f ef       	ldi	r24, 0xFF	; 255
     640:	2f 3f       	cpi	r18, 0xFF	; 255
     642:	38 07       	cpc	r19, r24
     644:	11 f4       	brne	.+4      	; 0x64a <ASA_getchar+0x28>
     646:	81 e0       	ldi	r24, 0x01	; 1
     648:	08 c0       	rjmp	.+16     	; 0x65a <ASA_getchar+0x38>
     64a:	80 91 9b 00 	lds	r24, 0x009B
     64e:	87 ff       	sbrs	r24, 7
     650:	f4 cf       	rjmp	.-24     	; 0x63a <ASA_getchar+0x18>
     652:	80 91 9c 00 	lds	r24, 0x009C
     656:	88 83       	st	Y, r24
     658:	80 e0       	ldi	r24, 0x00	; 0
     65a:	df 91       	pop	r29
     65c:	cf 91       	pop	r28
     65e:	08 95       	ret

00000660 <PC_putchar>:
     660:	5d 9b       	sbis	0x0b, 5	; 11
     662:	fe cf       	rjmp	.-4      	; 0x660 <PC_putchar>
     664:	8c b9       	out	0x0c, r24	; 12
     666:	08 95       	ret

00000668 <PC_getchar>:
     668:	5f 9b       	sbis	0x0b, 7	; 11
     66a:	fe cf       	rjmp	.-4      	; 0x668 <PC_getchar>
     66c:	8c b1       	in	r24, 0x0c	; 12
     66e:	08 95       	ret

00000670 <TWI_ERROR>:
     670:	84 e9       	ldi	r24, 0x94	; 148
     672:	80 93 74 00 	sts	0x0074, r24
     676:	08 95       	ret

00000678 <TWI_Start>:
     678:	84 ea       	ldi	r24, 0xA4	; 164
     67a:	80 93 74 00 	sts	0x0074, r24
     67e:	80 91 74 00 	lds	r24, 0x0074
     682:	87 ff       	sbrs	r24, 7
     684:	fc cf       	rjmp	.-8      	; 0x67e <TWI_Start+0x6>
     686:	80 91 71 00 	lds	r24, 0x0071
     68a:	88 7f       	andi	r24, 0xF8	; 248
     68c:	88 30       	cpi	r24, 0x08	; 8
     68e:	11 f4       	brne	.+4      	; 0x694 <TWI_Start+0x1c>
     690:	80 e0       	ldi	r24, 0x00	; 0
     692:	08 95       	ret
     694:	84 e9       	ldi	r24, 0x94	; 148
     696:	80 93 74 00 	sts	0x0074, r24
     69a:	81 e0       	ldi	r24, 0x01	; 1
     69c:	08 95       	ret

0000069e <TWI_Stop>:
     69e:	84 e9       	ldi	r24, 0x94	; 148
     6a0:	80 93 74 00 	sts	0x0074, r24
     6a4:	08 95       	ret

000006a6 <TWI_ReStart>:
     6a6:	84 ea       	ldi	r24, 0xA4	; 164
     6a8:	80 93 74 00 	sts	0x0074, r24
     6ac:	80 91 74 00 	lds	r24, 0x0074
     6b0:	87 ff       	sbrs	r24, 7
     6b2:	fc cf       	rjmp	.-8      	; 0x6ac <TWI_ReStart+0x6>
     6b4:	80 91 71 00 	lds	r24, 0x0071
     6b8:	88 7f       	andi	r24, 0xF8	; 248
     6ba:	80 31       	cpi	r24, 0x10	; 16
     6bc:	11 f4       	brne	.+4      	; 0x6c2 <TWI_ReStart+0x1c>
     6be:	80 e0       	ldi	r24, 0x00	; 0
     6c0:	08 95       	ret
     6c2:	84 e9       	ldi	r24, 0x94	; 148
     6c4:	80 93 74 00 	sts	0x0074, r24
     6c8:	82 e0       	ldi	r24, 0x02	; 2
     6ca:	08 95       	ret

000006cc <TWI_SendSLAW>:
     6cc:	90 e0       	ldi	r25, 0x00	; 0
     6ce:	88 0f       	add	r24, r24
     6d0:	99 1f       	adc	r25, r25
     6d2:	80 93 73 00 	sts	0x0073, r24
     6d6:	84 e8       	ldi	r24, 0x84	; 132
     6d8:	80 93 74 00 	sts	0x0074, r24
     6dc:	80 91 74 00 	lds	r24, 0x0074
     6e0:	87 ff       	sbrs	r24, 7
     6e2:	fc cf       	rjmp	.-8      	; 0x6dc <TWI_SendSLAW+0x10>
     6e4:	80 91 71 00 	lds	r24, 0x0071
     6e8:	88 7f       	andi	r24, 0xF8	; 248
     6ea:	88 31       	cpi	r24, 0x18	; 24
     6ec:	19 f0       	breq	.+6      	; 0x6f4 <TWI_SendSLAW+0x28>
     6ee:	84 e9       	ldi	r24, 0x94	; 148
     6f0:	80 93 74 00 	sts	0x0074, r24
     6f4:	08 95       	ret

000006f6 <TWI_SendSLAR>:
     6f6:	88 0f       	add	r24, r24
     6f8:	8f 5f       	subi	r24, 0xFF	; 255
     6fa:	80 93 73 00 	sts	0x0073, r24
     6fe:	84 e8       	ldi	r24, 0x84	; 132
     700:	80 93 74 00 	sts	0x0074, r24
     704:	80 91 74 00 	lds	r24, 0x0074
     708:	87 ff       	sbrs	r24, 7
     70a:	fc cf       	rjmp	.-8      	; 0x704 <TWI_SendSLAR+0xe>
     70c:	80 91 71 00 	lds	r24, 0x0071
     710:	88 7f       	andi	r24, 0xF8	; 248
     712:	80 34       	cpi	r24, 0x40	; 64
     714:	19 f0       	breq	.+6      	; 0x71c <TWI_SendSLAR+0x26>
     716:	84 e9       	ldi	r24, 0x94	; 148
     718:	80 93 74 00 	sts	0x0074, r24
     71c:	08 95       	ret

0000071e <TWI_TransmitData>:
     71e:	80 93 73 00 	sts	0x0073, r24
     722:	84 e8       	ldi	r24, 0x84	; 132
     724:	80 93 74 00 	sts	0x0074, r24
     728:	80 91 74 00 	lds	r24, 0x0074
     72c:	87 ff       	sbrs	r24, 7
     72e:	fc cf       	rjmp	.-8      	; 0x728 <TWI_TransmitData+0xa>
     730:	80 91 71 00 	lds	r24, 0x0071
     734:	88 7f       	andi	r24, 0xF8	; 248
     736:	88 32       	cpi	r24, 0x28	; 40
     738:	19 f0       	breq	.+6      	; 0x740 <TWI_TransmitData+0x22>
     73a:	84 e9       	ldi	r24, 0x94	; 148
     73c:	80 93 74 00 	sts	0x0074, r24
     740:	08 95       	ret

00000742 <TWI_ReceiveData>:
     742:	84 ec       	ldi	r24, 0xC4	; 196
     744:	80 93 74 00 	sts	0x0074, r24
     748:	80 91 74 00 	lds	r24, 0x0074
     74c:	87 ff       	sbrs	r24, 7
     74e:	fc cf       	rjmp	.-8      	; 0x748 <TWI_ReceiveData+0x6>
     750:	80 91 71 00 	lds	r24, 0x0071
     754:	88 7f       	andi	r24, 0xF8	; 248
     756:	80 35       	cpi	r24, 0x50	; 80
     758:	19 f0       	breq	.+6      	; 0x760 <TWI_ReceiveData+0x1e>
     75a:	84 e9       	ldi	r24, 0x94	; 148
     75c:	80 93 74 00 	sts	0x0074, r24
     760:	80 91 73 00 	lds	r24, 0x0073
     764:	08 95       	ret

00000766 <TWI_SendNoAck>:
     766:	84 e8       	ldi	r24, 0x84	; 132
     768:	80 93 74 00 	sts	0x0074, r24
     76c:	80 91 74 00 	lds	r24, 0x0074
     770:	87 ff       	sbrs	r24, 7
     772:	fc cf       	rjmp	.-8      	; 0x76c <TWI_SendNoAck+0x6>
     774:	80 91 71 00 	lds	r24, 0x0071
     778:	88 7f       	andi	r24, 0xF8	; 248
     77a:	88 35       	cpi	r24, 0x58	; 88
     77c:	19 f0       	breq	.+6      	; 0x784 <TWI_SendNoAck+0x1e>
     77e:	84 e9       	ldi	r24, 0x94	; 148
     780:	80 93 74 00 	sts	0x0074, r24
     784:	08 95       	ret

00000786 <TWI_wr>:
     786:	ff 92       	push	r15
     788:	0f 93       	push	r16
     78a:	1f 93       	push	r17
     78c:	18 2f       	mov	r17, r24
     78e:	06 2f       	mov	r16, r22
     790:	f4 2e       	mov	r15, r20
     792:	0e 94 3c 03 	call	0x678	; 0x678 <TWI_Start>
     796:	81 2f       	mov	r24, r17
     798:	0e 94 66 03 	call	0x6cc	; 0x6cc <TWI_SendSLAW>
     79c:	80 2f       	mov	r24, r16
     79e:	0e 94 8f 03 	call	0x71e	; 0x71e <TWI_TransmitData>
     7a2:	8f 2d       	mov	r24, r15
     7a4:	0e 94 8f 03 	call	0x71e	; 0x71e <TWI_TransmitData>
     7a8:	84 e9       	ldi	r24, 0x94	; 148
     7aa:	80 93 74 00 	sts	0x0074, r24
     7ae:	1f 91       	pop	r17
     7b0:	0f 91       	pop	r16
     7b2:	ff 90       	pop	r15
     7b4:	08 95       	ret

000007b6 <TWI_rd>:
     7b6:	0f 93       	push	r16
     7b8:	1f 93       	push	r17
     7ba:	08 2f       	mov	r16, r24
     7bc:	16 2f       	mov	r17, r22
     7be:	0e 94 3c 03 	call	0x678	; 0x678 <TWI_Start>
     7c2:	80 2f       	mov	r24, r16
     7c4:	0e 94 66 03 	call	0x6cc	; 0x6cc <TWI_SendSLAW>
     7c8:	81 2f       	mov	r24, r17
     7ca:	0e 94 8f 03 	call	0x71e	; 0x71e <TWI_TransmitData>
     7ce:	0e 94 53 03 	call	0x6a6	; 0x6a6 <TWI_ReStart>
     7d2:	80 2f       	mov	r24, r16
     7d4:	0e 94 7b 03 	call	0x6f6	; 0x6f6 <TWI_SendSLAR>
     7d8:	0e 94 a1 03 	call	0x742	; 0x742 <TWI_ReceiveData>
     7dc:	18 2f       	mov	r17, r24
     7de:	0e 94 b3 03 	call	0x766	; 0x766 <TWI_SendNoAck>
     7e2:	84 e9       	ldi	r24, 0x94	; 148
     7e4:	80 93 74 00 	sts	0x0074, r24
     7e8:	81 2f       	mov	r24, r17
     7ea:	1f 91       	pop	r17
     7ec:	0f 91       	pop	r16
     7ee:	08 95       	ret

000007f0 <TWI_initialize>:
     7f0:	80 93 70 00 	sts	0x0070, r24
     7f4:	08 95       	ret

000007f6 <TWI_Write>:
     7f6:	ef 92       	push	r14
     7f8:	ff 92       	push	r15
     7fa:	0f 93       	push	r16
     7fc:	1f 93       	push	r17
     7fe:	18 2f       	mov	r17, r24
     800:	06 2f       	mov	r16, r22
     802:	f7 2e       	mov	r15, r23
     804:	e4 2e       	mov	r14, r20
     806:	0e 94 3c 03 	call	0x678	; 0x678 <TWI_Start>
     80a:	81 30       	cpi	r24, 0x01	; 1
     80c:	09 f4       	brne	.+2      	; 0x810 <TWI_Write+0x1a>
     80e:	41 c0       	rjmp	.+130    	; 0x892 <TWI_Write+0x9c>
     810:	81 2f       	mov	r24, r17
     812:	90 e0       	ldi	r25, 0x00	; 0
     814:	88 0f       	add	r24, r24
     816:	99 1f       	adc	r25, r25
     818:	90 70       	andi	r25, 0x00	; 0
     81a:	80 93 73 00 	sts	0x0073, r24
     81e:	84 e8       	ldi	r24, 0x84	; 132
     820:	80 93 74 00 	sts	0x0074, r24
     824:	80 91 74 00 	lds	r24, 0x0074
     828:	87 ff       	sbrs	r24, 7
     82a:	fc cf       	rjmp	.-8      	; 0x824 <TWI_Write+0x2e>
     82c:	80 91 71 00 	lds	r24, 0x0071
     830:	88 7f       	andi	r24, 0xF8	; 248
     832:	88 31       	cpi	r24, 0x18	; 24
     834:	39 f4       	brne	.+14     	; 0x844 <TWI_Write+0x4e>
     836:	80 2f       	mov	r24, r16
     838:	9f 2d       	mov	r25, r15
     83a:	9c 01       	movw	r18, r24
     83c:	f9 01       	movw	r30, r18
     83e:	90 e0       	ldi	r25, 0x00	; 0
     840:	24 e8       	ldi	r18, 0x84	; 132
     842:	1a c0       	rjmp	.+52     	; 0x878 <TWI_Write+0x82>
     844:	84 e9       	ldi	r24, 0x94	; 148
     846:	80 93 74 00 	sts	0x0074, r24
     84a:	83 e0       	ldi	r24, 0x03	; 3
     84c:	22 c0       	rjmp	.+68     	; 0x892 <TWI_Write+0x9c>
     84e:	80 81       	ld	r24, Z
     850:	80 93 73 00 	sts	0x0073, r24
     854:	20 93 74 00 	sts	0x0074, r18
     858:	80 91 74 00 	lds	r24, 0x0074
     85c:	87 ff       	sbrs	r24, 7
     85e:	fc cf       	rjmp	.-8      	; 0x858 <TWI_Write+0x62>
     860:	80 91 71 00 	lds	r24, 0x0071
     864:	31 96       	adiw	r30, 0x01	; 1
     866:	88 7f       	andi	r24, 0xF8	; 248
     868:	88 32       	cpi	r24, 0x28	; 40
     86a:	29 f0       	breq	.+10     	; 0x876 <TWI_Write+0x80>
     86c:	84 e9       	ldi	r24, 0x94	; 148
     86e:	80 93 74 00 	sts	0x0074, r24
     872:	84 e0       	ldi	r24, 0x04	; 4
     874:	0e c0       	rjmp	.+28     	; 0x892 <TWI_Write+0x9c>
     876:	9f 5f       	subi	r25, 0xFF	; 255
     878:	9e 15       	cp	r25, r14
     87a:	48 f3       	brcs	.-46     	; 0x84e <TWI_Write+0x58>
     87c:	81 e0       	ldi	r24, 0x01	; 1
     87e:	8e 15       	cp	r24, r14
     880:	20 f4       	brcc	.+8      	; 0x88a <TWI_Write+0x94>
     882:	84 e9       	ldi	r24, 0x94	; 148
     884:	80 93 74 00 	sts	0x0074, r24
     888:	03 c0       	rjmp	.+6      	; 0x890 <TWI_Write+0x9a>
     88a:	81 e0       	ldi	r24, 0x01	; 1
     88c:	80 93 36 02 	sts	0x0236, r24
     890:	80 e0       	ldi	r24, 0x00	; 0
     892:	1f 91       	pop	r17
     894:	0f 91       	pop	r16
     896:	ff 90       	pop	r15
     898:	ef 90       	pop	r14
     89a:	08 95       	ret

0000089c <TWI_Read>:
     89c:	0f 93       	push	r16
     89e:	1f 93       	push	r17
     8a0:	cf 93       	push	r28
     8a2:	df 93       	push	r29
     8a4:	08 2f       	mov	r16, r24
     8a6:	eb 01       	movw	r28, r22
     8a8:	14 2f       	mov	r17, r20
     8aa:	80 91 36 02 	lds	r24, 0x0236
     8ae:	81 30       	cpi	r24, 0x01	; 1
     8b0:	41 f4       	brne	.+16     	; 0x8c2 <TWI_Read+0x26>
     8b2:	0e 94 53 03 	call	0x6a6	; 0x6a6 <TWI_ReStart>
     8b6:	82 30       	cpi	r24, 0x02	; 2
     8b8:	09 f4       	brne	.+2      	; 0x8bc <TWI_Read+0x20>
     8ba:	74 c0       	rjmp	.+232    	; 0x9a4 <TWI_Read+0x108>
     8bc:	10 92 36 02 	sts	0x0236, r1
     8c0:	02 c0       	rjmp	.+4      	; 0x8c6 <TWI_Read+0x2a>
     8c2:	0e 94 3c 03 	call	0x678	; 0x678 <TWI_Start>
     8c6:	81 30       	cpi	r24, 0x01	; 1
     8c8:	09 f4       	brne	.+2      	; 0x8cc <TWI_Read+0x30>
     8ca:	6c c0       	rjmp	.+216    	; 0x9a4 <TWI_Read+0x108>
     8cc:	80 2f       	mov	r24, r16
     8ce:	90 e0       	ldi	r25, 0x00	; 0
     8d0:	88 0f       	add	r24, r24
     8d2:	99 1f       	adc	r25, r25
     8d4:	81 60       	ori	r24, 0x01	; 1
     8d6:	80 93 73 00 	sts	0x0073, r24
     8da:	84 e8       	ldi	r24, 0x84	; 132
     8dc:	80 93 74 00 	sts	0x0074, r24
     8e0:	80 91 74 00 	lds	r24, 0x0074
     8e4:	87 ff       	sbrs	r24, 7
     8e6:	fc cf       	rjmp	.-8      	; 0x8e0 <TWI_Read+0x44>
     8e8:	80 91 71 00 	lds	r24, 0x0071
     8ec:	88 7f       	andi	r24, 0xF8	; 248
     8ee:	80 34       	cpi	r24, 0x40	; 64
     8f0:	29 f0       	breq	.+10     	; 0x8fc <TWI_Read+0x60>
     8f2:	84 e9       	ldi	r24, 0x94	; 148
     8f4:	80 93 74 00 	sts	0x0074, r24
     8f8:	85 e0       	ldi	r24, 0x05	; 5
     8fa:	54 c0       	rjmp	.+168    	; 0x9a4 <TWI_Read+0x108>
     8fc:	12 30       	cpi	r17, 0x02	; 2
     8fe:	d0 f1       	brcs	.+116    	; 0x974 <TWI_Read+0xd8>
     900:	40 e0       	ldi	r20, 0x00	; 0
     902:	21 2f       	mov	r18, r17
     904:	30 e0       	ldi	r19, 0x00	; 0
     906:	21 50       	subi	r18, 0x01	; 1
     908:	30 40       	sbci	r19, 0x00	; 0
     90a:	54 ec       	ldi	r21, 0xC4	; 196
     90c:	17 c0       	rjmp	.+46     	; 0x93c <TWI_Read+0xa0>
     90e:	50 93 74 00 	sts	0x0074, r21
     912:	80 91 74 00 	lds	r24, 0x0074
     916:	87 ff       	sbrs	r24, 7
     918:	fc cf       	rjmp	.-8      	; 0x912 <TWI_Read+0x76>
     91a:	80 91 71 00 	lds	r24, 0x0071
     91e:	88 7f       	andi	r24, 0xF8	; 248
     920:	80 35       	cpi	r24, 0x50	; 80
     922:	29 f0       	breq	.+10     	; 0x92e <TWI_Read+0x92>
     924:	84 e9       	ldi	r24, 0x94	; 148
     926:	80 93 74 00 	sts	0x0074, r24
     92a:	86 e0       	ldi	r24, 0x06	; 6
     92c:	3b c0       	rjmp	.+118    	; 0x9a4 <TWI_Read+0x108>
     92e:	80 91 73 00 	lds	r24, 0x0073
     932:	fe 01       	movw	r30, r28
     934:	e4 0f       	add	r30, r20
     936:	f1 1d       	adc	r31, r1
     938:	80 83       	st	Z, r24
     93a:	4f 5f       	subi	r20, 0xFF	; 255
     93c:	84 2f       	mov	r24, r20
     93e:	90 e0       	ldi	r25, 0x00	; 0
     940:	82 17       	cp	r24, r18
     942:	93 07       	cpc	r25, r19
     944:	24 f3       	brlt	.-56     	; 0x90e <TWI_Read+0x72>
     946:	84 e8       	ldi	r24, 0x84	; 132
     948:	80 93 74 00 	sts	0x0074, r24
     94c:	80 91 74 00 	lds	r24, 0x0074
     950:	87 ff       	sbrs	r24, 7
     952:	fc cf       	rjmp	.-8      	; 0x94c <TWI_Read+0xb0>
     954:	80 91 71 00 	lds	r24, 0x0071
     958:	88 7f       	andi	r24, 0xF8	; 248
     95a:	88 35       	cpi	r24, 0x58	; 88
     95c:	29 f0       	breq	.+10     	; 0x968 <TWI_Read+0xcc>
     95e:	84 e9       	ldi	r24, 0x94	; 148
     960:	80 93 74 00 	sts	0x0074, r24
     964:	87 e0       	ldi	r24, 0x07	; 7
     966:	1e c0       	rjmp	.+60     	; 0x9a4 <TWI_Read+0x108>
     968:	80 91 73 00 	lds	r24, 0x0073
     96c:	c1 0f       	add	r28, r17
     96e:	d1 1d       	adc	r29, r1
     970:	21 97       	sbiw	r28, 0x01	; 1
     972:	13 c0       	rjmp	.+38     	; 0x99a <TWI_Read+0xfe>
     974:	84 e8       	ldi	r24, 0x84	; 132
     976:	80 93 74 00 	sts	0x0074, r24
     97a:	80 91 74 00 	lds	r24, 0x0074
     97e:	87 ff       	sbrs	r24, 7
     980:	fc cf       	rjmp	.-8      	; 0x97a <TWI_Read+0xde>
     982:	80 91 71 00 	lds	r24, 0x0071
     986:	88 7f       	andi	r24, 0xF8	; 248
     988:	88 35       	cpi	r24, 0x58	; 88
     98a:	29 f0       	breq	.+10     	; 0x996 <TWI_Read+0xfa>
     98c:	84 e9       	ldi	r24, 0x94	; 148
     98e:	80 93 74 00 	sts	0x0074, r24
     992:	88 e0       	ldi	r24, 0x08	; 8
     994:	07 c0       	rjmp	.+14     	; 0x9a4 <TWI_Read+0x108>
     996:	80 91 73 00 	lds	r24, 0x0073
     99a:	88 83       	st	Y, r24
     99c:	84 e9       	ldi	r24, 0x94	; 148
     99e:	80 93 74 00 	sts	0x0074, r24
     9a2:	80 e0       	ldi	r24, 0x00	; 0
     9a4:	df 91       	pop	r29
     9a6:	cf 91       	pop	r28
     9a8:	1f 91       	pop	r17
     9aa:	0f 91       	pop	r16
     9ac:	08 95       	ret

000009ae <__mulsf3>:
     9ae:	a0 e2       	ldi	r26, 0x20	; 32
     9b0:	b0 e0       	ldi	r27, 0x00	; 0
     9b2:	ed ed       	ldi	r30, 0xDD	; 221
     9b4:	f4 e0       	ldi	r31, 0x04	; 4
     9b6:	0c 94 dc 0f 	jmp	0x1fb8	; 0x1fb8 <__prologue_saves__>
     9ba:	69 83       	std	Y+1, r22	; 0x01
     9bc:	7a 83       	std	Y+2, r23	; 0x02
     9be:	8b 83       	std	Y+3, r24	; 0x03
     9c0:	9c 83       	std	Y+4, r25	; 0x04
     9c2:	2d 83       	std	Y+5, r18	; 0x05
     9c4:	3e 83       	std	Y+6, r19	; 0x06
     9c6:	4f 83       	std	Y+7, r20	; 0x07
     9c8:	58 87       	std	Y+8, r21	; 0x08
     9ca:	ce 01       	movw	r24, r28
     9cc:	01 96       	adiw	r24, 0x01	; 1
     9ce:	be 01       	movw	r22, r28
     9d0:	67 5f       	subi	r22, 0xF7	; 247
     9d2:	7f 4f       	sbci	r23, 0xFF	; 255
     9d4:	0e 94 6e 07 	call	0xedc	; 0xedc <__unpack_f>
     9d8:	ce 01       	movw	r24, r28
     9da:	05 96       	adiw	r24, 0x05	; 5
     9dc:	be 01       	movw	r22, r28
     9de:	6f 5e       	subi	r22, 0xEF	; 239
     9e0:	7f 4f       	sbci	r23, 0xFF	; 255
     9e2:	0e 94 6e 07 	call	0xedc	; 0xedc <__unpack_f>
     9e6:	99 85       	ldd	r25, Y+9	; 0x09
     9e8:	92 30       	cpi	r25, 0x02	; 2
     9ea:	88 f0       	brcs	.+34     	; 0xa0e <__mulsf3+0x60>
     9ec:	89 89       	ldd	r24, Y+17	; 0x11
     9ee:	82 30       	cpi	r24, 0x02	; 2
     9f0:	c8 f0       	brcs	.+50     	; 0xa24 <__mulsf3+0x76>
     9f2:	94 30       	cpi	r25, 0x04	; 4
     9f4:	19 f4       	brne	.+6      	; 0x9fc <__mulsf3+0x4e>
     9f6:	82 30       	cpi	r24, 0x02	; 2
     9f8:	51 f4       	brne	.+20     	; 0xa0e <__mulsf3+0x60>
     9fa:	04 c0       	rjmp	.+8      	; 0xa04 <__mulsf3+0x56>
     9fc:	84 30       	cpi	r24, 0x04	; 4
     9fe:	29 f4       	brne	.+10     	; 0xa0a <__mulsf3+0x5c>
     a00:	92 30       	cpi	r25, 0x02	; 2
     a02:	81 f4       	brne	.+32     	; 0xa24 <__mulsf3+0x76>
     a04:	8a e1       	ldi	r24, 0x1A	; 26
     a06:	91 e0       	ldi	r25, 0x01	; 1
     a08:	c6 c0       	rjmp	.+396    	; 0xb96 <__mulsf3+0x1e8>
     a0a:	92 30       	cpi	r25, 0x02	; 2
     a0c:	49 f4       	brne	.+18     	; 0xa20 <__mulsf3+0x72>
     a0e:	20 e0       	ldi	r18, 0x00	; 0
     a10:	9a 85       	ldd	r25, Y+10	; 0x0a
     a12:	8a 89       	ldd	r24, Y+18	; 0x12
     a14:	98 13       	cpse	r25, r24
     a16:	21 e0       	ldi	r18, 0x01	; 1
     a18:	2a 87       	std	Y+10, r18	; 0x0a
     a1a:	ce 01       	movw	r24, r28
     a1c:	09 96       	adiw	r24, 0x09	; 9
     a1e:	bb c0       	rjmp	.+374    	; 0xb96 <__mulsf3+0x1e8>
     a20:	82 30       	cpi	r24, 0x02	; 2
     a22:	49 f4       	brne	.+18     	; 0xa36 <__mulsf3+0x88>
     a24:	20 e0       	ldi	r18, 0x00	; 0
     a26:	9a 85       	ldd	r25, Y+10	; 0x0a
     a28:	8a 89       	ldd	r24, Y+18	; 0x12
     a2a:	98 13       	cpse	r25, r24
     a2c:	21 e0       	ldi	r18, 0x01	; 1
     a2e:	2a 8b       	std	Y+18, r18	; 0x12
     a30:	ce 01       	movw	r24, r28
     a32:	41 96       	adiw	r24, 0x11	; 17
     a34:	b0 c0       	rjmp	.+352    	; 0xb96 <__mulsf3+0x1e8>
     a36:	2d 84       	ldd	r2, Y+13	; 0x0d
     a38:	3e 84       	ldd	r3, Y+14	; 0x0e
     a3a:	4f 84       	ldd	r4, Y+15	; 0x0f
     a3c:	58 88       	ldd	r5, Y+16	; 0x10
     a3e:	6d 88       	ldd	r6, Y+21	; 0x15
     a40:	7e 88       	ldd	r7, Y+22	; 0x16
     a42:	8f 88       	ldd	r8, Y+23	; 0x17
     a44:	98 8c       	ldd	r9, Y+24	; 0x18
     a46:	ee 24       	eor	r14, r14
     a48:	ff 24       	eor	r15, r15
     a4a:	87 01       	movw	r16, r14
     a4c:	aa 24       	eor	r10, r10
     a4e:	bb 24       	eor	r11, r11
     a50:	65 01       	movw	r12, r10
     a52:	40 e0       	ldi	r20, 0x00	; 0
     a54:	50 e0       	ldi	r21, 0x00	; 0
     a56:	60 e0       	ldi	r22, 0x00	; 0
     a58:	70 e0       	ldi	r23, 0x00	; 0
     a5a:	e0 e0       	ldi	r30, 0x00	; 0
     a5c:	f0 e0       	ldi	r31, 0x00	; 0
     a5e:	c1 01       	movw	r24, r2
     a60:	81 70       	andi	r24, 0x01	; 1
     a62:	90 70       	andi	r25, 0x00	; 0
     a64:	89 2b       	or	r24, r25
     a66:	e9 f0       	breq	.+58     	; 0xaa2 <__mulsf3+0xf4>
     a68:	e6 0c       	add	r14, r6
     a6a:	f7 1c       	adc	r15, r7
     a6c:	08 1d       	adc	r16, r8
     a6e:	19 1d       	adc	r17, r9
     a70:	9a 01       	movw	r18, r20
     a72:	ab 01       	movw	r20, r22
     a74:	2a 0d       	add	r18, r10
     a76:	3b 1d       	adc	r19, r11
     a78:	4c 1d       	adc	r20, r12
     a7a:	5d 1d       	adc	r21, r13
     a7c:	80 e0       	ldi	r24, 0x00	; 0
     a7e:	90 e0       	ldi	r25, 0x00	; 0
     a80:	a0 e0       	ldi	r26, 0x00	; 0
     a82:	b0 e0       	ldi	r27, 0x00	; 0
     a84:	e6 14       	cp	r14, r6
     a86:	f7 04       	cpc	r15, r7
     a88:	08 05       	cpc	r16, r8
     a8a:	19 05       	cpc	r17, r9
     a8c:	20 f4       	brcc	.+8      	; 0xa96 <__mulsf3+0xe8>
     a8e:	81 e0       	ldi	r24, 0x01	; 1
     a90:	90 e0       	ldi	r25, 0x00	; 0
     a92:	a0 e0       	ldi	r26, 0x00	; 0
     a94:	b0 e0       	ldi	r27, 0x00	; 0
     a96:	ba 01       	movw	r22, r20
     a98:	a9 01       	movw	r20, r18
     a9a:	48 0f       	add	r20, r24
     a9c:	59 1f       	adc	r21, r25
     a9e:	6a 1f       	adc	r22, r26
     aa0:	7b 1f       	adc	r23, r27
     aa2:	aa 0c       	add	r10, r10
     aa4:	bb 1c       	adc	r11, r11
     aa6:	cc 1c       	adc	r12, r12
     aa8:	dd 1c       	adc	r13, r13
     aaa:	97 fe       	sbrs	r9, 7
     aac:	08 c0       	rjmp	.+16     	; 0xabe <__mulsf3+0x110>
     aae:	81 e0       	ldi	r24, 0x01	; 1
     ab0:	90 e0       	ldi	r25, 0x00	; 0
     ab2:	a0 e0       	ldi	r26, 0x00	; 0
     ab4:	b0 e0       	ldi	r27, 0x00	; 0
     ab6:	a8 2a       	or	r10, r24
     ab8:	b9 2a       	or	r11, r25
     aba:	ca 2a       	or	r12, r26
     abc:	db 2a       	or	r13, r27
     abe:	31 96       	adiw	r30, 0x01	; 1
     ac0:	e0 32       	cpi	r30, 0x20	; 32
     ac2:	f1 05       	cpc	r31, r1
     ac4:	49 f0       	breq	.+18     	; 0xad8 <__mulsf3+0x12a>
     ac6:	66 0c       	add	r6, r6
     ac8:	77 1c       	adc	r7, r7
     aca:	88 1c       	adc	r8, r8
     acc:	99 1c       	adc	r9, r9
     ace:	56 94       	lsr	r5
     ad0:	47 94       	ror	r4
     ad2:	37 94       	ror	r3
     ad4:	27 94       	ror	r2
     ad6:	c3 cf       	rjmp	.-122    	; 0xa5e <__mulsf3+0xb0>
     ad8:	fa 85       	ldd	r31, Y+10	; 0x0a
     ada:	ea 89       	ldd	r30, Y+18	; 0x12
     adc:	2b 89       	ldd	r18, Y+19	; 0x13
     ade:	3c 89       	ldd	r19, Y+20	; 0x14
     ae0:	8b 85       	ldd	r24, Y+11	; 0x0b
     ae2:	9c 85       	ldd	r25, Y+12	; 0x0c
     ae4:	28 0f       	add	r18, r24
     ae6:	39 1f       	adc	r19, r25
     ae8:	2e 5f       	subi	r18, 0xFE	; 254
     aea:	3f 4f       	sbci	r19, 0xFF	; 255
     aec:	17 c0       	rjmp	.+46     	; 0xb1c <__mulsf3+0x16e>
     aee:	ca 01       	movw	r24, r20
     af0:	81 70       	andi	r24, 0x01	; 1
     af2:	90 70       	andi	r25, 0x00	; 0
     af4:	89 2b       	or	r24, r25
     af6:	61 f0       	breq	.+24     	; 0xb10 <__mulsf3+0x162>
     af8:	16 95       	lsr	r17
     afa:	07 95       	ror	r16
     afc:	f7 94       	ror	r15
     afe:	e7 94       	ror	r14
     b00:	80 e0       	ldi	r24, 0x00	; 0
     b02:	90 e0       	ldi	r25, 0x00	; 0
     b04:	a0 e0       	ldi	r26, 0x00	; 0
     b06:	b0 e8       	ldi	r27, 0x80	; 128
     b08:	e8 2a       	or	r14, r24
     b0a:	f9 2a       	or	r15, r25
     b0c:	0a 2b       	or	r16, r26
     b0e:	1b 2b       	or	r17, r27
     b10:	76 95       	lsr	r23
     b12:	67 95       	ror	r22
     b14:	57 95       	ror	r21
     b16:	47 95       	ror	r20
     b18:	2f 5f       	subi	r18, 0xFF	; 255
     b1a:	3f 4f       	sbci	r19, 0xFF	; 255
     b1c:	77 fd       	sbrc	r23, 7
     b1e:	e7 cf       	rjmp	.-50     	; 0xaee <__mulsf3+0x140>
     b20:	0c c0       	rjmp	.+24     	; 0xb3a <__mulsf3+0x18c>
     b22:	44 0f       	add	r20, r20
     b24:	55 1f       	adc	r21, r21
     b26:	66 1f       	adc	r22, r22
     b28:	77 1f       	adc	r23, r23
     b2a:	17 fd       	sbrc	r17, 7
     b2c:	41 60       	ori	r20, 0x01	; 1
     b2e:	ee 0c       	add	r14, r14
     b30:	ff 1c       	adc	r15, r15
     b32:	00 1f       	adc	r16, r16
     b34:	11 1f       	adc	r17, r17
     b36:	21 50       	subi	r18, 0x01	; 1
     b38:	30 40       	sbci	r19, 0x00	; 0
     b3a:	40 30       	cpi	r20, 0x00	; 0
     b3c:	90 e0       	ldi	r25, 0x00	; 0
     b3e:	59 07       	cpc	r21, r25
     b40:	90 e0       	ldi	r25, 0x00	; 0
     b42:	69 07       	cpc	r22, r25
     b44:	90 e4       	ldi	r25, 0x40	; 64
     b46:	79 07       	cpc	r23, r25
     b48:	60 f3       	brcs	.-40     	; 0xb22 <__mulsf3+0x174>
     b4a:	2b 8f       	std	Y+27, r18	; 0x1b
     b4c:	3c 8f       	std	Y+28, r19	; 0x1c
     b4e:	db 01       	movw	r26, r22
     b50:	ca 01       	movw	r24, r20
     b52:	8f 77       	andi	r24, 0x7F	; 127
     b54:	90 70       	andi	r25, 0x00	; 0
     b56:	a0 70       	andi	r26, 0x00	; 0
     b58:	b0 70       	andi	r27, 0x00	; 0
     b5a:	80 34       	cpi	r24, 0x40	; 64
     b5c:	91 05       	cpc	r25, r1
     b5e:	a1 05       	cpc	r26, r1
     b60:	b1 05       	cpc	r27, r1
     b62:	61 f4       	brne	.+24     	; 0xb7c <__mulsf3+0x1ce>
     b64:	47 fd       	sbrc	r20, 7
     b66:	0a c0       	rjmp	.+20     	; 0xb7c <__mulsf3+0x1ce>
     b68:	e1 14       	cp	r14, r1
     b6a:	f1 04       	cpc	r15, r1
     b6c:	01 05       	cpc	r16, r1
     b6e:	11 05       	cpc	r17, r1
     b70:	29 f0       	breq	.+10     	; 0xb7c <__mulsf3+0x1ce>
     b72:	40 5c       	subi	r20, 0xC0	; 192
     b74:	5f 4f       	sbci	r21, 0xFF	; 255
     b76:	6f 4f       	sbci	r22, 0xFF	; 255
     b78:	7f 4f       	sbci	r23, 0xFF	; 255
     b7a:	40 78       	andi	r20, 0x80	; 128
     b7c:	1a 8e       	std	Y+26, r1	; 0x1a
     b7e:	fe 17       	cp	r31, r30
     b80:	11 f0       	breq	.+4      	; 0xb86 <__mulsf3+0x1d8>
     b82:	81 e0       	ldi	r24, 0x01	; 1
     b84:	8a 8f       	std	Y+26, r24	; 0x1a
     b86:	4d 8f       	std	Y+29, r20	; 0x1d
     b88:	5e 8f       	std	Y+30, r21	; 0x1e
     b8a:	6f 8f       	std	Y+31, r22	; 0x1f
     b8c:	78 a3       	std	Y+32, r23	; 0x20
     b8e:	83 e0       	ldi	r24, 0x03	; 3
     b90:	89 8f       	std	Y+25, r24	; 0x19
     b92:	ce 01       	movw	r24, r28
     b94:	49 96       	adiw	r24, 0x19	; 25
     b96:	0e 94 99 06 	call	0xd32	; 0xd32 <__pack_f>
     b9a:	a0 96       	adiw	r28, 0x20	; 32
     b9c:	e2 e1       	ldi	r30, 0x12	; 18
     b9e:	0c 94 f8 0f 	jmp	0x1ff0	; 0x1ff0 <__epilogue_restores__>

00000ba2 <__floatunsisf>:
     ba2:	a8 e0       	ldi	r26, 0x08	; 8
     ba4:	b0 e0       	ldi	r27, 0x00	; 0
     ba6:	e7 ed       	ldi	r30, 0xD7	; 215
     ba8:	f5 e0       	ldi	r31, 0x05	; 5
     baa:	0c 94 e4 0f 	jmp	0x1fc8	; 0x1fc8 <__prologue_saves__+0x10>
     bae:	7b 01       	movw	r14, r22
     bb0:	8c 01       	movw	r16, r24
     bb2:	61 15       	cp	r22, r1
     bb4:	71 05       	cpc	r23, r1
     bb6:	81 05       	cpc	r24, r1
     bb8:	91 05       	cpc	r25, r1
     bba:	19 f4       	brne	.+6      	; 0xbc2 <__floatunsisf+0x20>
     bbc:	82 e0       	ldi	r24, 0x02	; 2
     bbe:	89 83       	std	Y+1, r24	; 0x01
     bc0:	60 c0       	rjmp	.+192    	; 0xc82 <__floatunsisf+0xe0>
     bc2:	83 e0       	ldi	r24, 0x03	; 3
     bc4:	89 83       	std	Y+1, r24	; 0x01
     bc6:	8e e1       	ldi	r24, 0x1E	; 30
     bc8:	c8 2e       	mov	r12, r24
     bca:	d1 2c       	mov	r13, r1
     bcc:	dc 82       	std	Y+4, r13	; 0x04
     bce:	cb 82       	std	Y+3, r12	; 0x03
     bd0:	ed 82       	std	Y+5, r14	; 0x05
     bd2:	fe 82       	std	Y+6, r15	; 0x06
     bd4:	0f 83       	std	Y+7, r16	; 0x07
     bd6:	18 87       	std	Y+8, r17	; 0x08
     bd8:	c8 01       	movw	r24, r16
     bda:	b7 01       	movw	r22, r14
     bdc:	0e 94 4a 06 	call	0xc94	; 0xc94 <__clzsi2>
     be0:	fc 01       	movw	r30, r24
     be2:	31 97       	sbiw	r30, 0x01	; 1
     be4:	f7 ff       	sbrs	r31, 7
     be6:	3b c0       	rjmp	.+118    	; 0xc5e <__floatunsisf+0xbc>
     be8:	22 27       	eor	r18, r18
     bea:	33 27       	eor	r19, r19
     bec:	2e 1b       	sub	r18, r30
     bee:	3f 0b       	sbc	r19, r31
     bf0:	57 01       	movw	r10, r14
     bf2:	68 01       	movw	r12, r16
     bf4:	02 2e       	mov	r0, r18
     bf6:	04 c0       	rjmp	.+8      	; 0xc00 <__floatunsisf+0x5e>
     bf8:	d6 94       	lsr	r13
     bfa:	c7 94       	ror	r12
     bfc:	b7 94       	ror	r11
     bfe:	a7 94       	ror	r10
     c00:	0a 94       	dec	r0
     c02:	d2 f7       	brpl	.-12     	; 0xbf8 <__floatunsisf+0x56>
     c04:	40 e0       	ldi	r20, 0x00	; 0
     c06:	50 e0       	ldi	r21, 0x00	; 0
     c08:	60 e0       	ldi	r22, 0x00	; 0
     c0a:	70 e0       	ldi	r23, 0x00	; 0
     c0c:	81 e0       	ldi	r24, 0x01	; 1
     c0e:	90 e0       	ldi	r25, 0x00	; 0
     c10:	a0 e0       	ldi	r26, 0x00	; 0
     c12:	b0 e0       	ldi	r27, 0x00	; 0
     c14:	04 c0       	rjmp	.+8      	; 0xc1e <__floatunsisf+0x7c>
     c16:	88 0f       	add	r24, r24
     c18:	99 1f       	adc	r25, r25
     c1a:	aa 1f       	adc	r26, r26
     c1c:	bb 1f       	adc	r27, r27
     c1e:	2a 95       	dec	r18
     c20:	d2 f7       	brpl	.-12     	; 0xc16 <__floatunsisf+0x74>
     c22:	01 97       	sbiw	r24, 0x01	; 1
     c24:	a1 09       	sbc	r26, r1
     c26:	b1 09       	sbc	r27, r1
     c28:	8e 21       	and	r24, r14
     c2a:	9f 21       	and	r25, r15
     c2c:	a0 23       	and	r26, r16
     c2e:	b1 23       	and	r27, r17
     c30:	00 97       	sbiw	r24, 0x00	; 0
     c32:	a1 05       	cpc	r26, r1
     c34:	b1 05       	cpc	r27, r1
     c36:	21 f0       	breq	.+8      	; 0xc40 <__floatunsisf+0x9e>
     c38:	41 e0       	ldi	r20, 0x01	; 1
     c3a:	50 e0       	ldi	r21, 0x00	; 0
     c3c:	60 e0       	ldi	r22, 0x00	; 0
     c3e:	70 e0       	ldi	r23, 0x00	; 0
     c40:	4a 29       	or	r20, r10
     c42:	5b 29       	or	r21, r11
     c44:	6c 29       	or	r22, r12
     c46:	7d 29       	or	r23, r13
     c48:	4d 83       	std	Y+5, r20	; 0x05
     c4a:	5e 83       	std	Y+6, r21	; 0x06
     c4c:	6f 83       	std	Y+7, r22	; 0x07
     c4e:	78 87       	std	Y+8, r23	; 0x08
     c50:	8e e1       	ldi	r24, 0x1E	; 30
     c52:	90 e0       	ldi	r25, 0x00	; 0
     c54:	8e 1b       	sub	r24, r30
     c56:	9f 0b       	sbc	r25, r31
     c58:	9c 83       	std	Y+4, r25	; 0x04
     c5a:	8b 83       	std	Y+3, r24	; 0x03
     c5c:	12 c0       	rjmp	.+36     	; 0xc82 <__floatunsisf+0xe0>
     c5e:	30 97       	sbiw	r30, 0x00	; 0
     c60:	81 f0       	breq	.+32     	; 0xc82 <__floatunsisf+0xe0>
     c62:	0e 2e       	mov	r0, r30
     c64:	04 c0       	rjmp	.+8      	; 0xc6e <__floatunsisf+0xcc>
     c66:	ee 0c       	add	r14, r14
     c68:	ff 1c       	adc	r15, r15
     c6a:	00 1f       	adc	r16, r16
     c6c:	11 1f       	adc	r17, r17
     c6e:	0a 94       	dec	r0
     c70:	d2 f7       	brpl	.-12     	; 0xc66 <__floatunsisf+0xc4>
     c72:	ed 82       	std	Y+5, r14	; 0x05
     c74:	fe 82       	std	Y+6, r15	; 0x06
     c76:	0f 83       	std	Y+7, r16	; 0x07
     c78:	18 87       	std	Y+8, r17	; 0x08
     c7a:	ce 1a       	sub	r12, r30
     c7c:	df 0a       	sbc	r13, r31
     c7e:	dc 82       	std	Y+4, r13	; 0x04
     c80:	cb 82       	std	Y+3, r12	; 0x03
     c82:	1a 82       	std	Y+2, r1	; 0x02
     c84:	ce 01       	movw	r24, r28
     c86:	01 96       	adiw	r24, 0x01	; 1
     c88:	0e 94 99 06 	call	0xd32	; 0xd32 <__pack_f>
     c8c:	28 96       	adiw	r28, 0x08	; 8
     c8e:	ea e0       	ldi	r30, 0x0A	; 10
     c90:	0c 94 00 10 	jmp	0x2000	; 0x2000 <__epilogue_restores__+0x10>

00000c94 <__clzsi2>:
     c94:	ef 92       	push	r14
     c96:	ff 92       	push	r15
     c98:	0f 93       	push	r16
     c9a:	1f 93       	push	r17
     c9c:	7b 01       	movw	r14, r22
     c9e:	8c 01       	movw	r16, r24
     ca0:	80 e0       	ldi	r24, 0x00	; 0
     ca2:	e8 16       	cp	r14, r24
     ca4:	80 e0       	ldi	r24, 0x00	; 0
     ca6:	f8 06       	cpc	r15, r24
     ca8:	81 e0       	ldi	r24, 0x01	; 1
     caa:	08 07       	cpc	r16, r24
     cac:	80 e0       	ldi	r24, 0x00	; 0
     cae:	18 07       	cpc	r17, r24
     cb0:	88 f4       	brcc	.+34     	; 0xcd4 <__clzsi2+0x40>
     cb2:	8f ef       	ldi	r24, 0xFF	; 255
     cb4:	e8 16       	cp	r14, r24
     cb6:	f1 04       	cpc	r15, r1
     cb8:	01 05       	cpc	r16, r1
     cba:	11 05       	cpc	r17, r1
     cbc:	31 f0       	breq	.+12     	; 0xcca <__clzsi2+0x36>
     cbe:	28 f0       	brcs	.+10     	; 0xcca <__clzsi2+0x36>
     cc0:	88 e0       	ldi	r24, 0x08	; 8
     cc2:	90 e0       	ldi	r25, 0x00	; 0
     cc4:	a0 e0       	ldi	r26, 0x00	; 0
     cc6:	b0 e0       	ldi	r27, 0x00	; 0
     cc8:	17 c0       	rjmp	.+46     	; 0xcf8 <__clzsi2+0x64>
     cca:	80 e0       	ldi	r24, 0x00	; 0
     ccc:	90 e0       	ldi	r25, 0x00	; 0
     cce:	a0 e0       	ldi	r26, 0x00	; 0
     cd0:	b0 e0       	ldi	r27, 0x00	; 0
     cd2:	12 c0       	rjmp	.+36     	; 0xcf8 <__clzsi2+0x64>
     cd4:	80 e0       	ldi	r24, 0x00	; 0
     cd6:	e8 16       	cp	r14, r24
     cd8:	80 e0       	ldi	r24, 0x00	; 0
     cda:	f8 06       	cpc	r15, r24
     cdc:	80 e0       	ldi	r24, 0x00	; 0
     cde:	08 07       	cpc	r16, r24
     ce0:	81 e0       	ldi	r24, 0x01	; 1
     ce2:	18 07       	cpc	r17, r24
     ce4:	28 f0       	brcs	.+10     	; 0xcf0 <__clzsi2+0x5c>
     ce6:	88 e1       	ldi	r24, 0x18	; 24
     ce8:	90 e0       	ldi	r25, 0x00	; 0
     cea:	a0 e0       	ldi	r26, 0x00	; 0
     cec:	b0 e0       	ldi	r27, 0x00	; 0
     cee:	04 c0       	rjmp	.+8      	; 0xcf8 <__clzsi2+0x64>
     cf0:	80 e1       	ldi	r24, 0x10	; 16
     cf2:	90 e0       	ldi	r25, 0x00	; 0
     cf4:	a0 e0       	ldi	r26, 0x00	; 0
     cf6:	b0 e0       	ldi	r27, 0x00	; 0
     cf8:	20 e2       	ldi	r18, 0x20	; 32
     cfa:	30 e0       	ldi	r19, 0x00	; 0
     cfc:	40 e0       	ldi	r20, 0x00	; 0
     cfe:	50 e0       	ldi	r21, 0x00	; 0
     d00:	28 1b       	sub	r18, r24
     d02:	39 0b       	sbc	r19, r25
     d04:	4a 0b       	sbc	r20, r26
     d06:	5b 0b       	sbc	r21, r27
     d08:	04 c0       	rjmp	.+8      	; 0xd12 <__clzsi2+0x7e>
     d0a:	16 95       	lsr	r17
     d0c:	07 95       	ror	r16
     d0e:	f7 94       	ror	r15
     d10:	e7 94       	ror	r14
     d12:	8a 95       	dec	r24
     d14:	d2 f7       	brpl	.-12     	; 0xd0a <__clzsi2+0x76>
     d16:	f7 01       	movw	r30, r14
     d18:	ee 5d       	subi	r30, 0xDE	; 222
     d1a:	fe 4f       	sbci	r31, 0xFE	; 254
     d1c:	80 81       	ld	r24, Z
     d1e:	28 1b       	sub	r18, r24
     d20:	31 09       	sbc	r19, r1
     d22:	41 09       	sbc	r20, r1
     d24:	51 09       	sbc	r21, r1
     d26:	c9 01       	movw	r24, r18
     d28:	1f 91       	pop	r17
     d2a:	0f 91       	pop	r16
     d2c:	ff 90       	pop	r15
     d2e:	ef 90       	pop	r14
     d30:	08 95       	ret

00000d32 <__pack_f>:
     d32:	df 92       	push	r13
     d34:	ef 92       	push	r14
     d36:	ff 92       	push	r15
     d38:	0f 93       	push	r16
     d3a:	1f 93       	push	r17
     d3c:	fc 01       	movw	r30, r24
     d3e:	e4 80       	ldd	r14, Z+4	; 0x04
     d40:	f5 80       	ldd	r15, Z+5	; 0x05
     d42:	06 81       	ldd	r16, Z+6	; 0x06
     d44:	17 81       	ldd	r17, Z+7	; 0x07
     d46:	d1 80       	ldd	r13, Z+1	; 0x01
     d48:	80 81       	ld	r24, Z
     d4a:	82 30       	cpi	r24, 0x02	; 2
     d4c:	48 f4       	brcc	.+18     	; 0xd60 <__pack_f+0x2e>
     d4e:	80 e0       	ldi	r24, 0x00	; 0
     d50:	90 e0       	ldi	r25, 0x00	; 0
     d52:	a0 e1       	ldi	r26, 0x10	; 16
     d54:	b0 e0       	ldi	r27, 0x00	; 0
     d56:	e8 2a       	or	r14, r24
     d58:	f9 2a       	or	r15, r25
     d5a:	0a 2b       	or	r16, r26
     d5c:	1b 2b       	or	r17, r27
     d5e:	a5 c0       	rjmp	.+330    	; 0xeaa <__pack_f+0x178>
     d60:	84 30       	cpi	r24, 0x04	; 4
     d62:	09 f4       	brne	.+2      	; 0xd66 <__pack_f+0x34>
     d64:	9f c0       	rjmp	.+318    	; 0xea4 <__pack_f+0x172>
     d66:	82 30       	cpi	r24, 0x02	; 2
     d68:	21 f4       	brne	.+8      	; 0xd72 <__pack_f+0x40>
     d6a:	ee 24       	eor	r14, r14
     d6c:	ff 24       	eor	r15, r15
     d6e:	87 01       	movw	r16, r14
     d70:	05 c0       	rjmp	.+10     	; 0xd7c <__pack_f+0x4a>
     d72:	e1 14       	cp	r14, r1
     d74:	f1 04       	cpc	r15, r1
     d76:	01 05       	cpc	r16, r1
     d78:	11 05       	cpc	r17, r1
     d7a:	19 f4       	brne	.+6      	; 0xd82 <__pack_f+0x50>
     d7c:	e0 e0       	ldi	r30, 0x00	; 0
     d7e:	f0 e0       	ldi	r31, 0x00	; 0
     d80:	96 c0       	rjmp	.+300    	; 0xeae <__pack_f+0x17c>
     d82:	62 81       	ldd	r22, Z+2	; 0x02
     d84:	73 81       	ldd	r23, Z+3	; 0x03
     d86:	9f ef       	ldi	r25, 0xFF	; 255
     d88:	62 38       	cpi	r22, 0x82	; 130
     d8a:	79 07       	cpc	r23, r25
     d8c:	0c f0       	brlt	.+2      	; 0xd90 <__pack_f+0x5e>
     d8e:	5b c0       	rjmp	.+182    	; 0xe46 <__pack_f+0x114>
     d90:	22 e8       	ldi	r18, 0x82	; 130
     d92:	3f ef       	ldi	r19, 0xFF	; 255
     d94:	26 1b       	sub	r18, r22
     d96:	37 0b       	sbc	r19, r23
     d98:	2a 31       	cpi	r18, 0x1A	; 26
     d9a:	31 05       	cpc	r19, r1
     d9c:	2c f0       	brlt	.+10     	; 0xda8 <__pack_f+0x76>
     d9e:	20 e0       	ldi	r18, 0x00	; 0
     da0:	30 e0       	ldi	r19, 0x00	; 0
     da2:	40 e0       	ldi	r20, 0x00	; 0
     da4:	50 e0       	ldi	r21, 0x00	; 0
     da6:	2a c0       	rjmp	.+84     	; 0xdfc <__pack_f+0xca>
     da8:	b8 01       	movw	r22, r16
     daa:	a7 01       	movw	r20, r14
     dac:	02 2e       	mov	r0, r18
     dae:	04 c0       	rjmp	.+8      	; 0xdb8 <__pack_f+0x86>
     db0:	76 95       	lsr	r23
     db2:	67 95       	ror	r22
     db4:	57 95       	ror	r21
     db6:	47 95       	ror	r20
     db8:	0a 94       	dec	r0
     dba:	d2 f7       	brpl	.-12     	; 0xdb0 <__pack_f+0x7e>
     dbc:	81 e0       	ldi	r24, 0x01	; 1
     dbe:	90 e0       	ldi	r25, 0x00	; 0
     dc0:	a0 e0       	ldi	r26, 0x00	; 0
     dc2:	b0 e0       	ldi	r27, 0x00	; 0
     dc4:	04 c0       	rjmp	.+8      	; 0xdce <__pack_f+0x9c>
     dc6:	88 0f       	add	r24, r24
     dc8:	99 1f       	adc	r25, r25
     dca:	aa 1f       	adc	r26, r26
     dcc:	bb 1f       	adc	r27, r27
     dce:	2a 95       	dec	r18
     dd0:	d2 f7       	brpl	.-12     	; 0xdc6 <__pack_f+0x94>
     dd2:	01 97       	sbiw	r24, 0x01	; 1
     dd4:	a1 09       	sbc	r26, r1
     dd6:	b1 09       	sbc	r27, r1
     dd8:	8e 21       	and	r24, r14
     dda:	9f 21       	and	r25, r15
     ddc:	a0 23       	and	r26, r16
     dde:	b1 23       	and	r27, r17
     de0:	00 97       	sbiw	r24, 0x00	; 0
     de2:	a1 05       	cpc	r26, r1
     de4:	b1 05       	cpc	r27, r1
     de6:	21 f0       	breq	.+8      	; 0xdf0 <__pack_f+0xbe>
     de8:	81 e0       	ldi	r24, 0x01	; 1
     dea:	90 e0       	ldi	r25, 0x00	; 0
     dec:	a0 e0       	ldi	r26, 0x00	; 0
     dee:	b0 e0       	ldi	r27, 0x00	; 0
     df0:	9a 01       	movw	r18, r20
     df2:	ab 01       	movw	r20, r22
     df4:	28 2b       	or	r18, r24
     df6:	39 2b       	or	r19, r25
     df8:	4a 2b       	or	r20, r26
     dfa:	5b 2b       	or	r21, r27
     dfc:	da 01       	movw	r26, r20
     dfe:	c9 01       	movw	r24, r18
     e00:	8f 77       	andi	r24, 0x7F	; 127
     e02:	90 70       	andi	r25, 0x00	; 0
     e04:	a0 70       	andi	r26, 0x00	; 0
     e06:	b0 70       	andi	r27, 0x00	; 0
     e08:	80 34       	cpi	r24, 0x40	; 64
     e0a:	91 05       	cpc	r25, r1
     e0c:	a1 05       	cpc	r26, r1
     e0e:	b1 05       	cpc	r27, r1
     e10:	39 f4       	brne	.+14     	; 0xe20 <__pack_f+0xee>
     e12:	27 ff       	sbrs	r18, 7
     e14:	09 c0       	rjmp	.+18     	; 0xe28 <__pack_f+0xf6>
     e16:	20 5c       	subi	r18, 0xC0	; 192
     e18:	3f 4f       	sbci	r19, 0xFF	; 255
     e1a:	4f 4f       	sbci	r20, 0xFF	; 255
     e1c:	5f 4f       	sbci	r21, 0xFF	; 255
     e1e:	04 c0       	rjmp	.+8      	; 0xe28 <__pack_f+0xf6>
     e20:	21 5c       	subi	r18, 0xC1	; 193
     e22:	3f 4f       	sbci	r19, 0xFF	; 255
     e24:	4f 4f       	sbci	r20, 0xFF	; 255
     e26:	5f 4f       	sbci	r21, 0xFF	; 255
     e28:	e0 e0       	ldi	r30, 0x00	; 0
     e2a:	f0 e0       	ldi	r31, 0x00	; 0
     e2c:	20 30       	cpi	r18, 0x00	; 0
     e2e:	a0 e0       	ldi	r26, 0x00	; 0
     e30:	3a 07       	cpc	r19, r26
     e32:	a0 e0       	ldi	r26, 0x00	; 0
     e34:	4a 07       	cpc	r20, r26
     e36:	a0 e4       	ldi	r26, 0x40	; 64
     e38:	5a 07       	cpc	r21, r26
     e3a:	10 f0       	brcs	.+4      	; 0xe40 <__pack_f+0x10e>
     e3c:	e1 e0       	ldi	r30, 0x01	; 1
     e3e:	f0 e0       	ldi	r31, 0x00	; 0
     e40:	79 01       	movw	r14, r18
     e42:	8a 01       	movw	r16, r20
     e44:	27 c0       	rjmp	.+78     	; 0xe94 <__pack_f+0x162>
     e46:	60 38       	cpi	r22, 0x80	; 128
     e48:	71 05       	cpc	r23, r1
     e4a:	64 f5       	brge	.+88     	; 0xea4 <__pack_f+0x172>
     e4c:	fb 01       	movw	r30, r22
     e4e:	e1 58       	subi	r30, 0x81	; 129
     e50:	ff 4f       	sbci	r31, 0xFF	; 255
     e52:	d8 01       	movw	r26, r16
     e54:	c7 01       	movw	r24, r14
     e56:	8f 77       	andi	r24, 0x7F	; 127
     e58:	90 70       	andi	r25, 0x00	; 0
     e5a:	a0 70       	andi	r26, 0x00	; 0
     e5c:	b0 70       	andi	r27, 0x00	; 0
     e5e:	80 34       	cpi	r24, 0x40	; 64
     e60:	91 05       	cpc	r25, r1
     e62:	a1 05       	cpc	r26, r1
     e64:	b1 05       	cpc	r27, r1
     e66:	39 f4       	brne	.+14     	; 0xe76 <__pack_f+0x144>
     e68:	e7 fe       	sbrs	r14, 7
     e6a:	0d c0       	rjmp	.+26     	; 0xe86 <__pack_f+0x154>
     e6c:	80 e4       	ldi	r24, 0x40	; 64
     e6e:	90 e0       	ldi	r25, 0x00	; 0
     e70:	a0 e0       	ldi	r26, 0x00	; 0
     e72:	b0 e0       	ldi	r27, 0x00	; 0
     e74:	04 c0       	rjmp	.+8      	; 0xe7e <__pack_f+0x14c>
     e76:	8f e3       	ldi	r24, 0x3F	; 63
     e78:	90 e0       	ldi	r25, 0x00	; 0
     e7a:	a0 e0       	ldi	r26, 0x00	; 0
     e7c:	b0 e0       	ldi	r27, 0x00	; 0
     e7e:	e8 0e       	add	r14, r24
     e80:	f9 1e       	adc	r15, r25
     e82:	0a 1f       	adc	r16, r26
     e84:	1b 1f       	adc	r17, r27
     e86:	17 ff       	sbrs	r17, 7
     e88:	05 c0       	rjmp	.+10     	; 0xe94 <__pack_f+0x162>
     e8a:	16 95       	lsr	r17
     e8c:	07 95       	ror	r16
     e8e:	f7 94       	ror	r15
     e90:	e7 94       	ror	r14
     e92:	31 96       	adiw	r30, 0x01	; 1
     e94:	87 e0       	ldi	r24, 0x07	; 7
     e96:	16 95       	lsr	r17
     e98:	07 95       	ror	r16
     e9a:	f7 94       	ror	r15
     e9c:	e7 94       	ror	r14
     e9e:	8a 95       	dec	r24
     ea0:	d1 f7       	brne	.-12     	; 0xe96 <__pack_f+0x164>
     ea2:	05 c0       	rjmp	.+10     	; 0xeae <__pack_f+0x17c>
     ea4:	ee 24       	eor	r14, r14
     ea6:	ff 24       	eor	r15, r15
     ea8:	87 01       	movw	r16, r14
     eaa:	ef ef       	ldi	r30, 0xFF	; 255
     eac:	f0 e0       	ldi	r31, 0x00	; 0
     eae:	6e 2f       	mov	r22, r30
     eb0:	67 95       	ror	r22
     eb2:	66 27       	eor	r22, r22
     eb4:	67 95       	ror	r22
     eb6:	90 2f       	mov	r25, r16
     eb8:	9f 77       	andi	r25, 0x7F	; 127
     eba:	d7 94       	ror	r13
     ebc:	dd 24       	eor	r13, r13
     ebe:	d7 94       	ror	r13
     ec0:	8e 2f       	mov	r24, r30
     ec2:	86 95       	lsr	r24
     ec4:	49 2f       	mov	r20, r25
     ec6:	46 2b       	or	r20, r22
     ec8:	58 2f       	mov	r21, r24
     eca:	5d 29       	or	r21, r13
     ecc:	b7 01       	movw	r22, r14
     ece:	ca 01       	movw	r24, r20
     ed0:	1f 91       	pop	r17
     ed2:	0f 91       	pop	r16
     ed4:	ff 90       	pop	r15
     ed6:	ef 90       	pop	r14
     ed8:	df 90       	pop	r13
     eda:	08 95       	ret

00000edc <__unpack_f>:
     edc:	fc 01       	movw	r30, r24
     ede:	db 01       	movw	r26, r22
     ee0:	40 81       	ld	r20, Z
     ee2:	51 81       	ldd	r21, Z+1	; 0x01
     ee4:	22 81       	ldd	r18, Z+2	; 0x02
     ee6:	62 2f       	mov	r22, r18
     ee8:	6f 77       	andi	r22, 0x7F	; 127
     eea:	70 e0       	ldi	r23, 0x00	; 0
     eec:	22 1f       	adc	r18, r18
     eee:	22 27       	eor	r18, r18
     ef0:	22 1f       	adc	r18, r18
     ef2:	93 81       	ldd	r25, Z+3	; 0x03
     ef4:	89 2f       	mov	r24, r25
     ef6:	88 0f       	add	r24, r24
     ef8:	82 2b       	or	r24, r18
     efa:	28 2f       	mov	r18, r24
     efc:	30 e0       	ldi	r19, 0x00	; 0
     efe:	99 1f       	adc	r25, r25
     f00:	99 27       	eor	r25, r25
     f02:	99 1f       	adc	r25, r25
     f04:	11 96       	adiw	r26, 0x01	; 1
     f06:	9c 93       	st	X, r25
     f08:	11 97       	sbiw	r26, 0x01	; 1
     f0a:	21 15       	cp	r18, r1
     f0c:	31 05       	cpc	r19, r1
     f0e:	a9 f5       	brne	.+106    	; 0xf7a <__unpack_f+0x9e>
     f10:	41 15       	cp	r20, r1
     f12:	51 05       	cpc	r21, r1
     f14:	61 05       	cpc	r22, r1
     f16:	71 05       	cpc	r23, r1
     f18:	11 f4       	brne	.+4      	; 0xf1e <__unpack_f+0x42>
     f1a:	82 e0       	ldi	r24, 0x02	; 2
     f1c:	37 c0       	rjmp	.+110    	; 0xf8c <__unpack_f+0xb0>
     f1e:	82 e8       	ldi	r24, 0x82	; 130
     f20:	9f ef       	ldi	r25, 0xFF	; 255
     f22:	13 96       	adiw	r26, 0x03	; 3
     f24:	9c 93       	st	X, r25
     f26:	8e 93       	st	-X, r24
     f28:	12 97       	sbiw	r26, 0x02	; 2
     f2a:	9a 01       	movw	r18, r20
     f2c:	ab 01       	movw	r20, r22
     f2e:	67 e0       	ldi	r22, 0x07	; 7
     f30:	22 0f       	add	r18, r18
     f32:	33 1f       	adc	r19, r19
     f34:	44 1f       	adc	r20, r20
     f36:	55 1f       	adc	r21, r21
     f38:	6a 95       	dec	r22
     f3a:	d1 f7       	brne	.-12     	; 0xf30 <__unpack_f+0x54>
     f3c:	83 e0       	ldi	r24, 0x03	; 3
     f3e:	8c 93       	st	X, r24
     f40:	0d c0       	rjmp	.+26     	; 0xf5c <__unpack_f+0x80>
     f42:	22 0f       	add	r18, r18
     f44:	33 1f       	adc	r19, r19
     f46:	44 1f       	adc	r20, r20
     f48:	55 1f       	adc	r21, r21
     f4a:	12 96       	adiw	r26, 0x02	; 2
     f4c:	8d 91       	ld	r24, X+
     f4e:	9c 91       	ld	r25, X
     f50:	13 97       	sbiw	r26, 0x03	; 3
     f52:	01 97       	sbiw	r24, 0x01	; 1
     f54:	13 96       	adiw	r26, 0x03	; 3
     f56:	9c 93       	st	X, r25
     f58:	8e 93       	st	-X, r24
     f5a:	12 97       	sbiw	r26, 0x02	; 2
     f5c:	20 30       	cpi	r18, 0x00	; 0
     f5e:	80 e0       	ldi	r24, 0x00	; 0
     f60:	38 07       	cpc	r19, r24
     f62:	80 e0       	ldi	r24, 0x00	; 0
     f64:	48 07       	cpc	r20, r24
     f66:	80 e4       	ldi	r24, 0x40	; 64
     f68:	58 07       	cpc	r21, r24
     f6a:	58 f3       	brcs	.-42     	; 0xf42 <__unpack_f+0x66>
     f6c:	14 96       	adiw	r26, 0x04	; 4
     f6e:	2d 93       	st	X+, r18
     f70:	3d 93       	st	X+, r19
     f72:	4d 93       	st	X+, r20
     f74:	5c 93       	st	X, r21
     f76:	17 97       	sbiw	r26, 0x07	; 7
     f78:	08 95       	ret
     f7a:	2f 3f       	cpi	r18, 0xFF	; 255
     f7c:	31 05       	cpc	r19, r1
     f7e:	79 f4       	brne	.+30     	; 0xf9e <__unpack_f+0xc2>
     f80:	41 15       	cp	r20, r1
     f82:	51 05       	cpc	r21, r1
     f84:	61 05       	cpc	r22, r1
     f86:	71 05       	cpc	r23, r1
     f88:	19 f4       	brne	.+6      	; 0xf90 <__unpack_f+0xb4>
     f8a:	84 e0       	ldi	r24, 0x04	; 4
     f8c:	8c 93       	st	X, r24
     f8e:	08 95       	ret
     f90:	64 ff       	sbrs	r22, 4
     f92:	03 c0       	rjmp	.+6      	; 0xf9a <__unpack_f+0xbe>
     f94:	81 e0       	ldi	r24, 0x01	; 1
     f96:	8c 93       	st	X, r24
     f98:	12 c0       	rjmp	.+36     	; 0xfbe <__unpack_f+0xe2>
     f9a:	1c 92       	st	X, r1
     f9c:	10 c0       	rjmp	.+32     	; 0xfbe <__unpack_f+0xe2>
     f9e:	2f 57       	subi	r18, 0x7F	; 127
     fa0:	30 40       	sbci	r19, 0x00	; 0
     fa2:	13 96       	adiw	r26, 0x03	; 3
     fa4:	3c 93       	st	X, r19
     fa6:	2e 93       	st	-X, r18
     fa8:	12 97       	sbiw	r26, 0x02	; 2
     faa:	83 e0       	ldi	r24, 0x03	; 3
     fac:	8c 93       	st	X, r24
     fae:	87 e0       	ldi	r24, 0x07	; 7
     fb0:	44 0f       	add	r20, r20
     fb2:	55 1f       	adc	r21, r21
     fb4:	66 1f       	adc	r22, r22
     fb6:	77 1f       	adc	r23, r23
     fb8:	8a 95       	dec	r24
     fba:	d1 f7       	brne	.-12     	; 0xfb0 <__unpack_f+0xd4>
     fbc:	70 64       	ori	r23, 0x40	; 64
     fbe:	14 96       	adiw	r26, 0x04	; 4
     fc0:	4d 93       	st	X+, r20
     fc2:	5d 93       	st	X+, r21
     fc4:	6d 93       	st	X+, r22
     fc6:	7c 93       	st	X, r23
     fc8:	17 97       	sbiw	r26, 0x07	; 7
     fca:	08 95       	ret

00000fcc <vfprintf>:
     fcc:	2f 92       	push	r2
     fce:	3f 92       	push	r3
     fd0:	4f 92       	push	r4
     fd2:	5f 92       	push	r5
     fd4:	6f 92       	push	r6
     fd6:	7f 92       	push	r7
     fd8:	8f 92       	push	r8
     fda:	9f 92       	push	r9
     fdc:	af 92       	push	r10
     fde:	bf 92       	push	r11
     fe0:	cf 92       	push	r12
     fe2:	df 92       	push	r13
     fe4:	ef 92       	push	r14
     fe6:	ff 92       	push	r15
     fe8:	0f 93       	push	r16
     fea:	1f 93       	push	r17
     fec:	df 93       	push	r29
     fee:	cf 93       	push	r28
     ff0:	cd b7       	in	r28, 0x3d	; 61
     ff2:	de b7       	in	r29, 0x3e	; 62
     ff4:	61 97       	sbiw	r28, 0x11	; 17
     ff6:	0f b6       	in	r0, 0x3f	; 63
     ff8:	f8 94       	cli
     ffa:	de bf       	out	0x3e, r29	; 62
     ffc:	0f be       	out	0x3f, r0	; 63
     ffe:	cd bf       	out	0x3d, r28	; 61
    1000:	3c 01       	movw	r6, r24
    1002:	7f 87       	std	Y+15, r23	; 0x0f
    1004:	6e 87       	std	Y+14, r22	; 0x0e
    1006:	6a 01       	movw	r12, r20
    1008:	fc 01       	movw	r30, r24
    100a:	17 82       	std	Z+7, r1	; 0x07
    100c:	16 82       	std	Z+6, r1	; 0x06
    100e:	83 81       	ldd	r24, Z+3	; 0x03
    1010:	81 fd       	sbrc	r24, 1
    1012:	03 c0       	rjmp	.+6      	; 0x101a <vfprintf+0x4e>
    1014:	6f ef       	ldi	r22, 0xFF	; 255
    1016:	7f ef       	ldi	r23, 0xFF	; 255
    1018:	6f c3       	rjmp	.+1758   	; 0x16f8 <__stack+0x5f9>
    101a:	9e 01       	movw	r18, r28
    101c:	2f 5f       	subi	r18, 0xFF	; 255
    101e:	3f 4f       	sbci	r19, 0xFF	; 255
    1020:	39 8b       	std	Y+17, r19	; 0x11
    1022:	28 8b       	std	Y+16, r18	; 0x10
    1024:	f3 01       	movw	r30, r6
    1026:	23 81       	ldd	r18, Z+3	; 0x03
    1028:	ee 85       	ldd	r30, Y+14	; 0x0e
    102a:	ff 85       	ldd	r31, Y+15	; 0x0f
    102c:	23 fd       	sbrc	r18, 3
    102e:	85 91       	lpm	r24, Z+
    1030:	23 ff       	sbrs	r18, 3
    1032:	81 91       	ld	r24, Z+
    1034:	ff 87       	std	Y+15, r31	; 0x0f
    1036:	ee 87       	std	Y+14, r30	; 0x0e
    1038:	88 23       	and	r24, r24
    103a:	09 f4       	brne	.+2      	; 0x103e <vfprintf+0x72>
    103c:	5a c3       	rjmp	.+1716   	; 0x16f2 <__stack+0x5f3>
    103e:	85 32       	cpi	r24, 0x25	; 37
    1040:	51 f4       	brne	.+20     	; 0x1056 <vfprintf+0x8a>
    1042:	ee 85       	ldd	r30, Y+14	; 0x0e
    1044:	ff 85       	ldd	r31, Y+15	; 0x0f
    1046:	23 fd       	sbrc	r18, 3
    1048:	85 91       	lpm	r24, Z+
    104a:	23 ff       	sbrs	r18, 3
    104c:	81 91       	ld	r24, Z+
    104e:	ff 87       	std	Y+15, r31	; 0x0f
    1050:	ee 87       	std	Y+14, r30	; 0x0e
    1052:	85 32       	cpi	r24, 0x25	; 37
    1054:	29 f4       	brne	.+10     	; 0x1060 <vfprintf+0x94>
    1056:	90 e0       	ldi	r25, 0x00	; 0
    1058:	b3 01       	movw	r22, r6
    105a:	0e 94 5e 11 	call	0x22bc	; 0x22bc <fputc>
    105e:	e2 cf       	rjmp	.-60     	; 0x1024 <vfprintf+0x58>
    1060:	98 2f       	mov	r25, r24
    1062:	10 e0       	ldi	r17, 0x00	; 0
    1064:	88 24       	eor	r8, r8
    1066:	99 24       	eor	r9, r9
    1068:	10 32       	cpi	r17, 0x20	; 32
    106a:	b0 f4       	brcc	.+44     	; 0x1098 <vfprintf+0xcc>
    106c:	9b 32       	cpi	r25, 0x2B	; 43
    106e:	69 f0       	breq	.+26     	; 0x108a <vfprintf+0xbe>
    1070:	9c 32       	cpi	r25, 0x2C	; 44
    1072:	28 f4       	brcc	.+10     	; 0x107e <vfprintf+0xb2>
    1074:	90 32       	cpi	r25, 0x20	; 32
    1076:	51 f0       	breq	.+20     	; 0x108c <vfprintf+0xc0>
    1078:	93 32       	cpi	r25, 0x23	; 35
    107a:	71 f4       	brne	.+28     	; 0x1098 <vfprintf+0xcc>
    107c:	0b c0       	rjmp	.+22     	; 0x1094 <vfprintf+0xc8>
    107e:	9d 32       	cpi	r25, 0x2D	; 45
    1080:	39 f0       	breq	.+14     	; 0x1090 <vfprintf+0xc4>
    1082:	90 33       	cpi	r25, 0x30	; 48
    1084:	49 f4       	brne	.+18     	; 0x1098 <vfprintf+0xcc>
    1086:	11 60       	ori	r17, 0x01	; 1
    1088:	28 c0       	rjmp	.+80     	; 0x10da <vfprintf+0x10e>
    108a:	12 60       	ori	r17, 0x02	; 2
    108c:	14 60       	ori	r17, 0x04	; 4
    108e:	25 c0       	rjmp	.+74     	; 0x10da <vfprintf+0x10e>
    1090:	18 60       	ori	r17, 0x08	; 8
    1092:	23 c0       	rjmp	.+70     	; 0x10da <vfprintf+0x10e>
    1094:	10 61       	ori	r17, 0x10	; 16
    1096:	21 c0       	rjmp	.+66     	; 0x10da <vfprintf+0x10e>
    1098:	17 fd       	sbrc	r17, 7
    109a:	2a c0       	rjmp	.+84     	; 0x10f0 <vfprintf+0x124>
    109c:	89 2f       	mov	r24, r25
    109e:	80 53       	subi	r24, 0x30	; 48
    10a0:	8a 30       	cpi	r24, 0x0A	; 10
    10a2:	78 f4       	brcc	.+30     	; 0x10c2 <vfprintf+0xf6>
    10a4:	16 ff       	sbrs	r17, 6
    10a6:	06 c0       	rjmp	.+12     	; 0x10b4 <vfprintf+0xe8>
    10a8:	fa e0       	ldi	r31, 0x0A	; 10
    10aa:	9f 9e       	mul	r9, r31
    10ac:	90 2c       	mov	r9, r0
    10ae:	11 24       	eor	r1, r1
    10b0:	98 0e       	add	r9, r24
    10b2:	13 c0       	rjmp	.+38     	; 0x10da <vfprintf+0x10e>
    10b4:	3a e0       	ldi	r19, 0x0A	; 10
    10b6:	83 9e       	mul	r8, r19
    10b8:	80 2c       	mov	r8, r0
    10ba:	11 24       	eor	r1, r1
    10bc:	88 0e       	add	r8, r24
    10be:	10 62       	ori	r17, 0x20	; 32
    10c0:	0c c0       	rjmp	.+24     	; 0x10da <vfprintf+0x10e>
    10c2:	9e 32       	cpi	r25, 0x2E	; 46
    10c4:	21 f4       	brne	.+8      	; 0x10ce <vfprintf+0x102>
    10c6:	16 fd       	sbrc	r17, 6
    10c8:	14 c3       	rjmp	.+1576   	; 0x16f2 <__stack+0x5f3>
    10ca:	10 64       	ori	r17, 0x40	; 64
    10cc:	06 c0       	rjmp	.+12     	; 0x10da <vfprintf+0x10e>
    10ce:	9c 36       	cpi	r25, 0x6C	; 108
    10d0:	11 f4       	brne	.+4      	; 0x10d6 <vfprintf+0x10a>
    10d2:	10 68       	ori	r17, 0x80	; 128
    10d4:	02 c0       	rjmp	.+4      	; 0x10da <vfprintf+0x10e>
    10d6:	98 36       	cpi	r25, 0x68	; 104
    10d8:	59 f4       	brne	.+22     	; 0x10f0 <vfprintf+0x124>
    10da:	ee 85       	ldd	r30, Y+14	; 0x0e
    10dc:	ff 85       	ldd	r31, Y+15	; 0x0f
    10de:	23 fd       	sbrc	r18, 3
    10e0:	95 91       	lpm	r25, Z+
    10e2:	23 ff       	sbrs	r18, 3
    10e4:	91 91       	ld	r25, Z+
    10e6:	ff 87       	std	Y+15, r31	; 0x0f
    10e8:	ee 87       	std	Y+14, r30	; 0x0e
    10ea:	99 23       	and	r25, r25
    10ec:	09 f0       	breq	.+2      	; 0x10f0 <vfprintf+0x124>
    10ee:	bc cf       	rjmp	.-136    	; 0x1068 <vfprintf+0x9c>
    10f0:	89 2f       	mov	r24, r25
    10f2:	85 54       	subi	r24, 0x45	; 69
    10f4:	83 30       	cpi	r24, 0x03	; 3
    10f6:	20 f4       	brcc	.+8      	; 0x1100 <__stack+0x1>
    10f8:	81 2f       	mov	r24, r17
    10fa:	80 61       	ori	r24, 0x10	; 16
    10fc:	90 5e       	subi	r25, 0xE0	; 224
    10fe:	07 c0       	rjmp	.+14     	; 0x110e <__stack+0xf>
    1100:	89 2f       	mov	r24, r25
    1102:	85 56       	subi	r24, 0x65	; 101
    1104:	83 30       	cpi	r24, 0x03	; 3
    1106:	08 f0       	brcs	.+2      	; 0x110a <__stack+0xb>
    1108:	9f c1       	rjmp	.+830    	; 0x1448 <__stack+0x349>
    110a:	81 2f       	mov	r24, r17
    110c:	8f 7e       	andi	r24, 0xEF	; 239
    110e:	86 fd       	sbrc	r24, 6
    1110:	02 c0       	rjmp	.+4      	; 0x1116 <__stack+0x17>
    1112:	76 e0       	ldi	r23, 0x06	; 6
    1114:	97 2e       	mov	r9, r23
    1116:	6f e3       	ldi	r22, 0x3F	; 63
    1118:	f6 2e       	mov	r15, r22
    111a:	f8 22       	and	r15, r24
    111c:	95 36       	cpi	r25, 0x65	; 101
    111e:	19 f4       	brne	.+6      	; 0x1126 <__stack+0x27>
    1120:	f0 e4       	ldi	r31, 0x40	; 64
    1122:	ff 2a       	or	r15, r31
    1124:	07 c0       	rjmp	.+14     	; 0x1134 <__stack+0x35>
    1126:	96 36       	cpi	r25, 0x66	; 102
    1128:	19 f4       	brne	.+6      	; 0x1130 <__stack+0x31>
    112a:	20 e8       	ldi	r18, 0x80	; 128
    112c:	f2 2a       	or	r15, r18
    112e:	02 c0       	rjmp	.+4      	; 0x1134 <__stack+0x35>
    1130:	91 10       	cpse	r9, r1
    1132:	9a 94       	dec	r9
    1134:	f7 fe       	sbrs	r15, 7
    1136:	0a c0       	rjmp	.+20     	; 0x114c <__stack+0x4d>
    1138:	3b e3       	ldi	r19, 0x3B	; 59
    113a:	39 15       	cp	r19, r9
    113c:	18 f4       	brcc	.+6      	; 0x1144 <__stack+0x45>
    113e:	5c e3       	ldi	r21, 0x3C	; 60
    1140:	b5 2e       	mov	r11, r21
    1142:	02 c0       	rjmp	.+4      	; 0x1148 <__stack+0x49>
    1144:	b9 2c       	mov	r11, r9
    1146:	b3 94       	inc	r11
    1148:	27 e0       	ldi	r18, 0x07	; 7
    114a:	09 c0       	rjmp	.+18     	; 0x115e <__stack+0x5f>
    114c:	47 e0       	ldi	r20, 0x07	; 7
    114e:	49 15       	cp	r20, r9
    1150:	20 f4       	brcc	.+8      	; 0x115a <__stack+0x5b>
    1152:	bb 24       	eor	r11, r11
    1154:	47 e0       	ldi	r20, 0x07	; 7
    1156:	94 2e       	mov	r9, r20
    1158:	f7 cf       	rjmp	.-18     	; 0x1148 <__stack+0x49>
    115a:	29 2d       	mov	r18, r9
    115c:	bb 24       	eor	r11, r11
    115e:	c6 01       	movw	r24, r12
    1160:	04 96       	adiw	r24, 0x04	; 4
    1162:	9d 87       	std	Y+13, r25	; 0x0d
    1164:	8c 87       	std	Y+12, r24	; 0x0c
    1166:	f6 01       	movw	r30, r12
    1168:	60 81       	ld	r22, Z
    116a:	71 81       	ldd	r23, Z+1	; 0x01
    116c:	82 81       	ldd	r24, Z+2	; 0x02
    116e:	93 81       	ldd	r25, Z+3	; 0x03
    1170:	ae 01       	movw	r20, r28
    1172:	4f 5f       	subi	r20, 0xFF	; 255
    1174:	5f 4f       	sbci	r21, 0xFF	; 255
    1176:	0b 2d       	mov	r16, r11
    1178:	0e 94 13 10 	call	0x2026	; 0x2026 <__ftoa_engine>
    117c:	6c 01       	movw	r12, r24
    117e:	09 81       	ldd	r16, Y+1	; 0x01
    1180:	20 2e       	mov	r2, r16
    1182:	33 24       	eor	r3, r3
    1184:	00 ff       	sbrs	r16, 0
    1186:	04 c0       	rjmp	.+8      	; 0x1190 <__stack+0x91>
    1188:	03 fd       	sbrc	r16, 3
    118a:	02 c0       	rjmp	.+4      	; 0x1190 <__stack+0x91>
    118c:	1d e2       	ldi	r17, 0x2D	; 45
    118e:	09 c0       	rjmp	.+18     	; 0x11a2 <__stack+0xa3>
    1190:	f1 fe       	sbrs	r15, 1
    1192:	02 c0       	rjmp	.+4      	; 0x1198 <__stack+0x99>
    1194:	1b e2       	ldi	r17, 0x2B	; 43
    1196:	05 c0       	rjmp	.+10     	; 0x11a2 <__stack+0xa3>
    1198:	f2 fc       	sbrc	r15, 2
    119a:	02 c0       	rjmp	.+4      	; 0x11a0 <__stack+0xa1>
    119c:	10 e0       	ldi	r17, 0x00	; 0
    119e:	01 c0       	rjmp	.+2      	; 0x11a2 <__stack+0xa3>
    11a0:	10 e2       	ldi	r17, 0x20	; 32
    11a2:	c1 01       	movw	r24, r2
    11a4:	8c 70       	andi	r24, 0x0C	; 12
    11a6:	90 70       	andi	r25, 0x00	; 0
    11a8:	89 2b       	or	r24, r25
    11aa:	b9 f1       	breq	.+110    	; 0x121a <__stack+0x11b>
    11ac:	11 23       	and	r17, r17
    11ae:	11 f4       	brne	.+4      	; 0x11b4 <__stack+0xb5>
    11b0:	83 e0       	ldi	r24, 0x03	; 3
    11b2:	01 c0       	rjmp	.+2      	; 0x11b6 <__stack+0xb7>
    11b4:	84 e0       	ldi	r24, 0x04	; 4
    11b6:	88 15       	cp	r24, r8
    11b8:	10 f0       	brcs	.+4      	; 0x11be <__stack+0xbf>
    11ba:	88 24       	eor	r8, r8
    11bc:	0a c0       	rjmp	.+20     	; 0x11d2 <__stack+0xd3>
    11be:	88 1a       	sub	r8, r24
    11c0:	f3 fc       	sbrc	r15, 3
    11c2:	07 c0       	rjmp	.+14     	; 0x11d2 <__stack+0xd3>
    11c4:	80 e2       	ldi	r24, 0x20	; 32
    11c6:	90 e0       	ldi	r25, 0x00	; 0
    11c8:	b3 01       	movw	r22, r6
    11ca:	0e 94 5e 11 	call	0x22bc	; 0x22bc <fputc>
    11ce:	8a 94       	dec	r8
    11d0:	c9 f7       	brne	.-14     	; 0x11c4 <__stack+0xc5>
    11d2:	11 23       	and	r17, r17
    11d4:	29 f0       	breq	.+10     	; 0x11e0 <__stack+0xe1>
    11d6:	81 2f       	mov	r24, r17
    11d8:	90 e0       	ldi	r25, 0x00	; 0
    11da:	b3 01       	movw	r22, r6
    11dc:	0e 94 5e 11 	call	0x22bc	; 0x22bc <fputc>
    11e0:	23 fe       	sbrs	r2, 3
    11e2:	03 c0       	rjmp	.+6      	; 0x11ea <__stack+0xeb>
    11e4:	0c e8       	ldi	r16, 0x8C	; 140
    11e6:	10 e0       	ldi	r17, 0x00	; 0
    11e8:	0e c0       	rjmp	.+28     	; 0x1206 <__stack+0x107>
    11ea:	00 e9       	ldi	r16, 0x90	; 144
    11ec:	10 e0       	ldi	r17, 0x00	; 0
    11ee:	0b c0       	rjmp	.+22     	; 0x1206 <__stack+0x107>
    11f0:	e1 14       	cp	r14, r1
    11f2:	f1 04       	cpc	r15, r1
    11f4:	09 f0       	breq	.+2      	; 0x11f8 <__stack+0xf9>
    11f6:	80 52       	subi	r24, 0x20	; 32
    11f8:	90 e0       	ldi	r25, 0x00	; 0
    11fa:	b3 01       	movw	r22, r6
    11fc:	0e 94 5e 11 	call	0x22bc	; 0x22bc <fputc>
    1200:	0f 5f       	subi	r16, 0xFF	; 255
    1202:	1f 4f       	sbci	r17, 0xFF	; 255
    1204:	05 c0       	rjmp	.+10     	; 0x1210 <__stack+0x111>
    1206:	ef 2c       	mov	r14, r15
    1208:	ff 24       	eor	r15, r15
    120a:	f0 e1       	ldi	r31, 0x10	; 16
    120c:	ef 22       	and	r14, r31
    120e:	ff 24       	eor	r15, r15
    1210:	f8 01       	movw	r30, r16
    1212:	84 91       	lpm	r24, Z+
    1214:	88 23       	and	r24, r24
    1216:	61 f7       	brne	.-40     	; 0x11f0 <__stack+0xf1>
    1218:	14 c1       	rjmp	.+552    	; 0x1442 <__stack+0x343>
    121a:	f7 fe       	sbrs	r15, 7
    121c:	12 c0       	rjmp	.+36     	; 0x1242 <__stack+0x143>
    121e:	bc 0c       	add	r11, r12
    1220:	24 fe       	sbrs	r2, 4
    1222:	04 c0       	rjmp	.+8      	; 0x122c <__stack+0x12d>
    1224:	8a 81       	ldd	r24, Y+2	; 0x02
    1226:	81 33       	cpi	r24, 0x31	; 49
    1228:	09 f4       	brne	.+2      	; 0x122c <__stack+0x12d>
    122a:	ba 94       	dec	r11
    122c:	1b 14       	cp	r1, r11
    122e:	1c f0       	brlt	.+6      	; 0x1236 <__stack+0x137>
    1230:	bb 24       	eor	r11, r11
    1232:	b3 94       	inc	r11
    1234:	2d c0       	rjmp	.+90     	; 0x1290 <__stack+0x191>
    1236:	f8 e0       	ldi	r31, 0x08	; 8
    1238:	fb 15       	cp	r31, r11
    123a:	50 f5       	brcc	.+84     	; 0x1290 <__stack+0x191>
    123c:	38 e0       	ldi	r19, 0x08	; 8
    123e:	b3 2e       	mov	r11, r19
    1240:	27 c0       	rjmp	.+78     	; 0x1290 <__stack+0x191>
    1242:	f6 fc       	sbrc	r15, 6
    1244:	25 c0       	rjmp	.+74     	; 0x1290 <__stack+0x191>
    1246:	89 2d       	mov	r24, r9
    1248:	90 e0       	ldi	r25, 0x00	; 0
    124a:	8c 15       	cp	r24, r12
    124c:	9d 05       	cpc	r25, r13
    124e:	4c f0       	brlt	.+18     	; 0x1262 <__stack+0x163>
    1250:	2c ef       	ldi	r18, 0xFC	; 252
    1252:	c2 16       	cp	r12, r18
    1254:	2f ef       	ldi	r18, 0xFF	; 255
    1256:	d2 06       	cpc	r13, r18
    1258:	24 f0       	brlt	.+8      	; 0x1262 <__stack+0x163>
    125a:	30 e8       	ldi	r19, 0x80	; 128
    125c:	f3 2a       	or	r15, r19
    125e:	01 c0       	rjmp	.+2      	; 0x1262 <__stack+0x163>
    1260:	9a 94       	dec	r9
    1262:	99 20       	and	r9, r9
    1264:	49 f0       	breq	.+18     	; 0x1278 <__stack+0x179>
    1266:	e2 e0       	ldi	r30, 0x02	; 2
    1268:	f0 e0       	ldi	r31, 0x00	; 0
    126a:	ec 0f       	add	r30, r28
    126c:	fd 1f       	adc	r31, r29
    126e:	e9 0d       	add	r30, r9
    1270:	f1 1d       	adc	r31, r1
    1272:	80 81       	ld	r24, Z
    1274:	80 33       	cpi	r24, 0x30	; 48
    1276:	a1 f3       	breq	.-24     	; 0x1260 <__stack+0x161>
    1278:	f7 fe       	sbrs	r15, 7
    127a:	0a c0       	rjmp	.+20     	; 0x1290 <__stack+0x191>
    127c:	b9 2c       	mov	r11, r9
    127e:	b3 94       	inc	r11
    1280:	89 2d       	mov	r24, r9
    1282:	90 e0       	ldi	r25, 0x00	; 0
    1284:	c8 16       	cp	r12, r24
    1286:	d9 06       	cpc	r13, r25
    1288:	14 f0       	brlt	.+4      	; 0x128e <__stack+0x18f>
    128a:	99 24       	eor	r9, r9
    128c:	01 c0       	rjmp	.+2      	; 0x1290 <__stack+0x191>
    128e:	9c 18       	sub	r9, r12
    1290:	f7 fc       	sbrc	r15, 7
    1292:	03 c0       	rjmp	.+6      	; 0x129a <__stack+0x19b>
    1294:	25 e0       	ldi	r18, 0x05	; 5
    1296:	30 e0       	ldi	r19, 0x00	; 0
    1298:	09 c0       	rjmp	.+18     	; 0x12ac <__stack+0x1ad>
    129a:	1c 14       	cp	r1, r12
    129c:	1d 04       	cpc	r1, r13
    129e:	1c f0       	brlt	.+6      	; 0x12a6 <__stack+0x1a7>
    12a0:	21 e0       	ldi	r18, 0x01	; 1
    12a2:	30 e0       	ldi	r19, 0x00	; 0
    12a4:	03 c0       	rjmp	.+6      	; 0x12ac <__stack+0x1ad>
    12a6:	96 01       	movw	r18, r12
    12a8:	2f 5f       	subi	r18, 0xFF	; 255
    12aa:	3f 4f       	sbci	r19, 0xFF	; 255
    12ac:	11 23       	and	r17, r17
    12ae:	11 f0       	breq	.+4      	; 0x12b4 <__stack+0x1b5>
    12b0:	2f 5f       	subi	r18, 0xFF	; 255
    12b2:	3f 4f       	sbci	r19, 0xFF	; 255
    12b4:	99 20       	and	r9, r9
    12b6:	29 f0       	breq	.+10     	; 0x12c2 <__stack+0x1c3>
    12b8:	89 2d       	mov	r24, r9
    12ba:	90 e0       	ldi	r25, 0x00	; 0
    12bc:	01 96       	adiw	r24, 0x01	; 1
    12be:	28 0f       	add	r18, r24
    12c0:	39 1f       	adc	r19, r25
    12c2:	88 2d       	mov	r24, r8
    12c4:	90 e0       	ldi	r25, 0x00	; 0
    12c6:	28 17       	cp	r18, r24
    12c8:	39 07       	cpc	r19, r25
    12ca:	14 f0       	brlt	.+4      	; 0x12d0 <__stack+0x1d1>
    12cc:	88 24       	eor	r8, r8
    12ce:	01 c0       	rjmp	.+2      	; 0x12d2 <__stack+0x1d3>
    12d0:	82 1a       	sub	r8, r18
    12d2:	4f 2c       	mov	r4, r15
    12d4:	55 24       	eor	r5, r5
    12d6:	c2 01       	movw	r24, r4
    12d8:	89 70       	andi	r24, 0x09	; 9
    12da:	90 70       	andi	r25, 0x00	; 0
    12dc:	89 2b       	or	r24, r25
    12de:	39 f0       	breq	.+14     	; 0x12ee <__stack+0x1ef>
    12e0:	08 c0       	rjmp	.+16     	; 0x12f2 <__stack+0x1f3>
    12e2:	80 e2       	ldi	r24, 0x20	; 32
    12e4:	90 e0       	ldi	r25, 0x00	; 0
    12e6:	b3 01       	movw	r22, r6
    12e8:	0e 94 5e 11 	call	0x22bc	; 0x22bc <fputc>
    12ec:	8a 94       	dec	r8
    12ee:	88 20       	and	r8, r8
    12f0:	c1 f7       	brne	.-16     	; 0x12e2 <__stack+0x1e3>
    12f2:	11 23       	and	r17, r17
    12f4:	29 f0       	breq	.+10     	; 0x1300 <__stack+0x201>
    12f6:	81 2f       	mov	r24, r17
    12f8:	90 e0       	ldi	r25, 0x00	; 0
    12fa:	b3 01       	movw	r22, r6
    12fc:	0e 94 5e 11 	call	0x22bc	; 0x22bc <fputc>
    1300:	43 fe       	sbrs	r4, 3
    1302:	07 c0       	rjmp	.+14     	; 0x1312 <__stack+0x213>
    1304:	08 c0       	rjmp	.+16     	; 0x1316 <__stack+0x217>
    1306:	80 e3       	ldi	r24, 0x30	; 48
    1308:	90 e0       	ldi	r25, 0x00	; 0
    130a:	b3 01       	movw	r22, r6
    130c:	0e 94 5e 11 	call	0x22bc	; 0x22bc <fputc>
    1310:	8a 94       	dec	r8
    1312:	88 20       	and	r8, r8
    1314:	c1 f7       	brne	.-16     	; 0x1306 <__stack+0x207>
    1316:	f7 fe       	sbrs	r15, 7
    1318:	46 c0       	rjmp	.+140    	; 0x13a6 <__stack+0x2a7>
    131a:	86 01       	movw	r16, r12
    131c:	d7 fe       	sbrs	r13, 7
    131e:	02 c0       	rjmp	.+4      	; 0x1324 <__stack+0x225>
    1320:	00 e0       	ldi	r16, 0x00	; 0
    1322:	10 e0       	ldi	r17, 0x00	; 0
    1324:	76 01       	movw	r14, r12
    1326:	08 94       	sec
    1328:	e1 1c       	adc	r14, r1
    132a:	f1 1c       	adc	r15, r1
    132c:	e0 1a       	sub	r14, r16
    132e:	f1 0a       	sbc	r15, r17
    1330:	41 e0       	ldi	r20, 0x01	; 1
    1332:	50 e0       	ldi	r21, 0x00	; 0
    1334:	4c 0f       	add	r20, r28
    1336:	5d 1f       	adc	r21, r29
    1338:	e4 0e       	add	r14, r20
    133a:	f5 1e       	adc	r15, r21
    133c:	26 01       	movw	r4, r12
    133e:	4b 18       	sub	r4, r11
    1340:	51 08       	sbc	r5, r1
    1342:	89 2d       	mov	r24, r9
    1344:	90 e0       	ldi	r25, 0x00	; 0
    1346:	aa 24       	eor	r10, r10
    1348:	bb 24       	eor	r11, r11
    134a:	a8 1a       	sub	r10, r24
    134c:	b9 0a       	sbc	r11, r25
    134e:	5f ef       	ldi	r21, 0xFF	; 255
    1350:	0f 3f       	cpi	r16, 0xFF	; 255
    1352:	15 07       	cpc	r17, r21
    1354:	29 f4       	brne	.+10     	; 0x1360 <__stack+0x261>
    1356:	8e e2       	ldi	r24, 0x2E	; 46
    1358:	90 e0       	ldi	r25, 0x00	; 0
    135a:	b3 01       	movw	r22, r6
    135c:	0e 94 5e 11 	call	0x22bc	; 0x22bc <fputc>
    1360:	c0 16       	cp	r12, r16
    1362:	d1 06       	cpc	r13, r17
    1364:	34 f0       	brlt	.+12     	; 0x1372 <__stack+0x273>
    1366:	40 16       	cp	r4, r16
    1368:	51 06       	cpc	r5, r17
    136a:	1c f4       	brge	.+6      	; 0x1372 <__stack+0x273>
    136c:	f7 01       	movw	r30, r14
    136e:	80 81       	ld	r24, Z
    1370:	01 c0       	rjmp	.+2      	; 0x1374 <__stack+0x275>
    1372:	80 e3       	ldi	r24, 0x30	; 48
    1374:	01 50       	subi	r16, 0x01	; 1
    1376:	10 40       	sbci	r17, 0x00	; 0
    1378:	08 94       	sec
    137a:	e1 1c       	adc	r14, r1
    137c:	f1 1c       	adc	r15, r1
    137e:	0a 15       	cp	r16, r10
    1380:	1b 05       	cpc	r17, r11
    1382:	2c f0       	brlt	.+10     	; 0x138e <__stack+0x28f>
    1384:	90 e0       	ldi	r25, 0x00	; 0
    1386:	b3 01       	movw	r22, r6
    1388:	0e 94 5e 11 	call	0x22bc	; 0x22bc <fputc>
    138c:	e0 cf       	rjmp	.-64     	; 0x134e <__stack+0x24f>
    138e:	0c 15       	cp	r16, r12
    1390:	1d 05       	cpc	r17, r13
    1392:	39 f4       	brne	.+14     	; 0x13a2 <__stack+0x2a3>
    1394:	9a 81       	ldd	r25, Y+2	; 0x02
    1396:	96 33       	cpi	r25, 0x36	; 54
    1398:	18 f4       	brcc	.+6      	; 0x13a0 <__stack+0x2a1>
    139a:	95 33       	cpi	r25, 0x35	; 53
    139c:	11 f4       	brne	.+4      	; 0x13a2 <__stack+0x2a3>
    139e:	24 fe       	sbrs	r2, 4
    13a0:	81 e3       	ldi	r24, 0x31	; 49
    13a2:	90 e0       	ldi	r25, 0x00	; 0
    13a4:	4b c0       	rjmp	.+150    	; 0x143c <__stack+0x33d>
    13a6:	8a 81       	ldd	r24, Y+2	; 0x02
    13a8:	81 33       	cpi	r24, 0x31	; 49
    13aa:	09 f0       	breq	.+2      	; 0x13ae <__stack+0x2af>
    13ac:	0f 7e       	andi	r16, 0xEF	; 239
    13ae:	90 e0       	ldi	r25, 0x00	; 0
    13b0:	b3 01       	movw	r22, r6
    13b2:	0e 94 5e 11 	call	0x22bc	; 0x22bc <fputc>
    13b6:	99 20       	and	r9, r9
    13b8:	a1 f0       	breq	.+40     	; 0x13e2 <__stack+0x2e3>
    13ba:	8e e2       	ldi	r24, 0x2E	; 46
    13bc:	90 e0       	ldi	r25, 0x00	; 0
    13be:	b3 01       	movw	r22, r6
    13c0:	0e 94 5e 11 	call	0x22bc	; 0x22bc <fputc>
    13c4:	12 e0       	ldi	r17, 0x02	; 2
    13c6:	e1 e0       	ldi	r30, 0x01	; 1
    13c8:	f0 e0       	ldi	r31, 0x00	; 0
    13ca:	ec 0f       	add	r30, r28
    13cc:	fd 1f       	adc	r31, r29
    13ce:	e1 0f       	add	r30, r17
    13d0:	f1 1d       	adc	r31, r1
    13d2:	1f 5f       	subi	r17, 0xFF	; 255
    13d4:	80 81       	ld	r24, Z
    13d6:	90 e0       	ldi	r25, 0x00	; 0
    13d8:	b3 01       	movw	r22, r6
    13da:	0e 94 5e 11 	call	0x22bc	; 0x22bc <fputc>
    13de:	9a 94       	dec	r9
    13e0:	91 f7       	brne	.-28     	; 0x13c6 <__stack+0x2c7>
    13e2:	44 fc       	sbrc	r4, 4
    13e4:	03 c0       	rjmp	.+6      	; 0x13ec <__stack+0x2ed>
    13e6:	85 e6       	ldi	r24, 0x65	; 101
    13e8:	90 e0       	ldi	r25, 0x00	; 0
    13ea:	02 c0       	rjmp	.+4      	; 0x13f0 <__stack+0x2f1>
    13ec:	85 e4       	ldi	r24, 0x45	; 69
    13ee:	90 e0       	ldi	r25, 0x00	; 0
    13f0:	b3 01       	movw	r22, r6
    13f2:	0e 94 5e 11 	call	0x22bc	; 0x22bc <fputc>
    13f6:	d7 fc       	sbrc	r13, 7
    13f8:	05 c0       	rjmp	.+10     	; 0x1404 <__stack+0x305>
    13fa:	c1 14       	cp	r12, r1
    13fc:	d1 04       	cpc	r13, r1
    13fe:	41 f4       	brne	.+16     	; 0x1410 <__stack+0x311>
    1400:	04 ff       	sbrs	r16, 4
    1402:	06 c0       	rjmp	.+12     	; 0x1410 <__stack+0x311>
    1404:	d0 94       	com	r13
    1406:	c1 94       	neg	r12
    1408:	d1 08       	sbc	r13, r1
    140a:	d3 94       	inc	r13
    140c:	8d e2       	ldi	r24, 0x2D	; 45
    140e:	01 c0       	rjmp	.+2      	; 0x1412 <__stack+0x313>
    1410:	8b e2       	ldi	r24, 0x2B	; 43
    1412:	90 e0       	ldi	r25, 0x00	; 0
    1414:	b3 01       	movw	r22, r6
    1416:	0e 94 5e 11 	call	0x22bc	; 0x22bc <fputc>
    141a:	80 e3       	ldi	r24, 0x30	; 48
    141c:	05 c0       	rjmp	.+10     	; 0x1428 <__stack+0x329>
    141e:	8f 5f       	subi	r24, 0xFF	; 255
    1420:	26 ef       	ldi	r18, 0xF6	; 246
    1422:	3f ef       	ldi	r19, 0xFF	; 255
    1424:	c2 0e       	add	r12, r18
    1426:	d3 1e       	adc	r13, r19
    1428:	3a e0       	ldi	r19, 0x0A	; 10
    142a:	c3 16       	cp	r12, r19
    142c:	d1 04       	cpc	r13, r1
    142e:	bc f7       	brge	.-18     	; 0x141e <__stack+0x31f>
    1430:	90 e0       	ldi	r25, 0x00	; 0
    1432:	b3 01       	movw	r22, r6
    1434:	0e 94 5e 11 	call	0x22bc	; 0x22bc <fputc>
    1438:	c6 01       	movw	r24, r12
    143a:	c0 96       	adiw	r24, 0x30	; 48
    143c:	b3 01       	movw	r22, r6
    143e:	0e 94 5e 11 	call	0x22bc	; 0x22bc <fputc>
    1442:	cc 84       	ldd	r12, Y+12	; 0x0c
    1444:	dd 84       	ldd	r13, Y+13	; 0x0d
    1446:	52 c1       	rjmp	.+676    	; 0x16ec <__stack+0x5ed>
    1448:	93 36       	cpi	r25, 0x63	; 99
    144a:	31 f0       	breq	.+12     	; 0x1458 <__stack+0x359>
    144c:	93 37       	cpi	r25, 0x73	; 115
    144e:	99 f0       	breq	.+38     	; 0x1476 <__stack+0x377>
    1450:	93 35       	cpi	r25, 0x53	; 83
    1452:	09 f0       	breq	.+2      	; 0x1456 <__stack+0x357>
    1454:	59 c0       	rjmp	.+178    	; 0x1508 <__stack+0x409>
    1456:	23 c0       	rjmp	.+70     	; 0x149e <__stack+0x39f>
    1458:	f6 01       	movw	r30, r12
    145a:	80 81       	ld	r24, Z
    145c:	89 83       	std	Y+1, r24	; 0x01
    145e:	5e 01       	movw	r10, r28
    1460:	08 94       	sec
    1462:	a1 1c       	adc	r10, r1
    1464:	b1 1c       	adc	r11, r1
    1466:	22 e0       	ldi	r18, 0x02	; 2
    1468:	30 e0       	ldi	r19, 0x00	; 0
    146a:	c2 0e       	add	r12, r18
    146c:	d3 1e       	adc	r13, r19
    146e:	21 e0       	ldi	r18, 0x01	; 1
    1470:	e2 2e       	mov	r14, r18
    1472:	f1 2c       	mov	r15, r1
    1474:	12 c0       	rjmp	.+36     	; 0x149a <__stack+0x39b>
    1476:	f6 01       	movw	r30, r12
    1478:	a0 80       	ld	r10, Z
    147a:	b1 80       	ldd	r11, Z+1	; 0x01
    147c:	16 fd       	sbrc	r17, 6
    147e:	03 c0       	rjmp	.+6      	; 0x1486 <__stack+0x387>
    1480:	6f ef       	ldi	r22, 0xFF	; 255
    1482:	7f ef       	ldi	r23, 0xFF	; 255
    1484:	02 c0       	rjmp	.+4      	; 0x148a <__stack+0x38b>
    1486:	69 2d       	mov	r22, r9
    1488:	70 e0       	ldi	r23, 0x00	; 0
    148a:	22 e0       	ldi	r18, 0x02	; 2
    148c:	30 e0       	ldi	r19, 0x00	; 0
    148e:	c2 0e       	add	r12, r18
    1490:	d3 1e       	adc	r13, r19
    1492:	c5 01       	movw	r24, r10
    1494:	0e 94 11 11 	call	0x2222	; 0x2222 <strnlen>
    1498:	7c 01       	movw	r14, r24
    149a:	1f 77       	andi	r17, 0x7F	; 127
    149c:	13 c0       	rjmp	.+38     	; 0x14c4 <__stack+0x3c5>
    149e:	f6 01       	movw	r30, r12
    14a0:	a0 80       	ld	r10, Z
    14a2:	b1 80       	ldd	r11, Z+1	; 0x01
    14a4:	16 fd       	sbrc	r17, 6
    14a6:	03 c0       	rjmp	.+6      	; 0x14ae <__stack+0x3af>
    14a8:	6f ef       	ldi	r22, 0xFF	; 255
    14aa:	7f ef       	ldi	r23, 0xFF	; 255
    14ac:	02 c0       	rjmp	.+4      	; 0x14b2 <__stack+0x3b3>
    14ae:	69 2d       	mov	r22, r9
    14b0:	70 e0       	ldi	r23, 0x00	; 0
    14b2:	22 e0       	ldi	r18, 0x02	; 2
    14b4:	30 e0       	ldi	r19, 0x00	; 0
    14b6:	c2 0e       	add	r12, r18
    14b8:	d3 1e       	adc	r13, r19
    14ba:	c5 01       	movw	r24, r10
    14bc:	0e 94 06 11 	call	0x220c	; 0x220c <strnlen_P>
    14c0:	7c 01       	movw	r14, r24
    14c2:	10 68       	ori	r17, 0x80	; 128
    14c4:	13 ff       	sbrs	r17, 3
    14c6:	07 c0       	rjmp	.+14     	; 0x14d6 <__stack+0x3d7>
    14c8:	1b c0       	rjmp	.+54     	; 0x1500 <__stack+0x401>
    14ca:	80 e2       	ldi	r24, 0x20	; 32
    14cc:	90 e0       	ldi	r25, 0x00	; 0
    14ce:	b3 01       	movw	r22, r6
    14d0:	0e 94 5e 11 	call	0x22bc	; 0x22bc <fputc>
    14d4:	8a 94       	dec	r8
    14d6:	88 2d       	mov	r24, r8
    14d8:	90 e0       	ldi	r25, 0x00	; 0
    14da:	e8 16       	cp	r14, r24
    14dc:	f9 06       	cpc	r15, r25
    14de:	a8 f3       	brcs	.-22     	; 0x14ca <__stack+0x3cb>
    14e0:	0f c0       	rjmp	.+30     	; 0x1500 <__stack+0x401>
    14e2:	f5 01       	movw	r30, r10
    14e4:	17 fd       	sbrc	r17, 7
    14e6:	85 91       	lpm	r24, Z+
    14e8:	17 ff       	sbrs	r17, 7
    14ea:	81 91       	ld	r24, Z+
    14ec:	5f 01       	movw	r10, r30
    14ee:	90 e0       	ldi	r25, 0x00	; 0
    14f0:	b3 01       	movw	r22, r6
    14f2:	0e 94 5e 11 	call	0x22bc	; 0x22bc <fputc>
    14f6:	81 10       	cpse	r8, r1
    14f8:	8a 94       	dec	r8
    14fa:	08 94       	sec
    14fc:	e1 08       	sbc	r14, r1
    14fe:	f1 08       	sbc	r15, r1
    1500:	e1 14       	cp	r14, r1
    1502:	f1 04       	cpc	r15, r1
    1504:	71 f7       	brne	.-36     	; 0x14e2 <__stack+0x3e3>
    1506:	f2 c0       	rjmp	.+484    	; 0x16ec <__stack+0x5ed>
    1508:	94 36       	cpi	r25, 0x64	; 100
    150a:	11 f0       	breq	.+4      	; 0x1510 <__stack+0x411>
    150c:	99 36       	cpi	r25, 0x69	; 105
    150e:	89 f5       	brne	.+98     	; 0x1572 <__stack+0x473>
    1510:	17 ff       	sbrs	r17, 7
    1512:	08 c0       	rjmp	.+16     	; 0x1524 <__stack+0x425>
    1514:	f6 01       	movw	r30, r12
    1516:	20 81       	ld	r18, Z
    1518:	31 81       	ldd	r19, Z+1	; 0x01
    151a:	42 81       	ldd	r20, Z+2	; 0x02
    151c:	53 81       	ldd	r21, Z+3	; 0x03
    151e:	84 e0       	ldi	r24, 0x04	; 4
    1520:	90 e0       	ldi	r25, 0x00	; 0
    1522:	0a c0       	rjmp	.+20     	; 0x1538 <__stack+0x439>
    1524:	f6 01       	movw	r30, r12
    1526:	80 81       	ld	r24, Z
    1528:	91 81       	ldd	r25, Z+1	; 0x01
    152a:	9c 01       	movw	r18, r24
    152c:	44 27       	eor	r20, r20
    152e:	37 fd       	sbrc	r19, 7
    1530:	40 95       	com	r20
    1532:	54 2f       	mov	r21, r20
    1534:	82 e0       	ldi	r24, 0x02	; 2
    1536:	90 e0       	ldi	r25, 0x00	; 0
    1538:	c8 0e       	add	r12, r24
    153a:	d9 1e       	adc	r13, r25
    153c:	9f e6       	ldi	r25, 0x6F	; 111
    153e:	f9 2e       	mov	r15, r25
    1540:	f1 22       	and	r15, r17
    1542:	57 ff       	sbrs	r21, 7
    1544:	09 c0       	rjmp	.+18     	; 0x1558 <__stack+0x459>
    1546:	50 95       	com	r21
    1548:	40 95       	com	r20
    154a:	30 95       	com	r19
    154c:	21 95       	neg	r18
    154e:	3f 4f       	sbci	r19, 0xFF	; 255
    1550:	4f 4f       	sbci	r20, 0xFF	; 255
    1552:	5f 4f       	sbci	r21, 0xFF	; 255
    1554:	90 e8       	ldi	r25, 0x80	; 128
    1556:	f9 2a       	or	r15, r25
    1558:	ca 01       	movw	r24, r20
    155a:	b9 01       	movw	r22, r18
    155c:	ae 01       	movw	r20, r28
    155e:	4f 5f       	subi	r20, 0xFF	; 255
    1560:	5f 4f       	sbci	r21, 0xFF	; 255
    1562:	2a e0       	ldi	r18, 0x0A	; 10
    1564:	30 e0       	ldi	r19, 0x00	; 0
    1566:	0e 94 d9 11 	call	0x23b2	; 0x23b2 <__ultoa_invert>
    156a:	e8 2e       	mov	r14, r24
    156c:	e8 89       	ldd	r30, Y+16	; 0x10
    156e:	ee 1a       	sub	r14, r30
    1570:	41 c0       	rjmp	.+130    	; 0x15f4 <__stack+0x4f5>
    1572:	95 37       	cpi	r25, 0x75	; 117
    1574:	21 f4       	brne	.+8      	; 0x157e <__stack+0x47f>
    1576:	1f 7e       	andi	r17, 0xEF	; 239
    1578:	2a e0       	ldi	r18, 0x0A	; 10
    157a:	30 e0       	ldi	r19, 0x00	; 0
    157c:	1c c0       	rjmp	.+56     	; 0x15b6 <__stack+0x4b7>
    157e:	19 7f       	andi	r17, 0xF9	; 249
    1580:	9f 36       	cpi	r25, 0x6F	; 111
    1582:	61 f0       	breq	.+24     	; 0x159c <__stack+0x49d>
    1584:	90 37       	cpi	r25, 0x70	; 112
    1586:	20 f4       	brcc	.+8      	; 0x1590 <__stack+0x491>
    1588:	98 35       	cpi	r25, 0x58	; 88
    158a:	09 f0       	breq	.+2      	; 0x158e <__stack+0x48f>
    158c:	b2 c0       	rjmp	.+356    	; 0x16f2 <__stack+0x5f3>
    158e:	0f c0       	rjmp	.+30     	; 0x15ae <__stack+0x4af>
    1590:	90 37       	cpi	r25, 0x70	; 112
    1592:	39 f0       	breq	.+14     	; 0x15a2 <__stack+0x4a3>
    1594:	98 37       	cpi	r25, 0x78	; 120
    1596:	09 f0       	breq	.+2      	; 0x159a <__stack+0x49b>
    1598:	ac c0       	rjmp	.+344    	; 0x16f2 <__stack+0x5f3>
    159a:	04 c0       	rjmp	.+8      	; 0x15a4 <__stack+0x4a5>
    159c:	28 e0       	ldi	r18, 0x08	; 8
    159e:	30 e0       	ldi	r19, 0x00	; 0
    15a0:	0a c0       	rjmp	.+20     	; 0x15b6 <__stack+0x4b7>
    15a2:	10 61       	ori	r17, 0x10	; 16
    15a4:	14 fd       	sbrc	r17, 4
    15a6:	14 60       	ori	r17, 0x04	; 4
    15a8:	20 e1       	ldi	r18, 0x10	; 16
    15aa:	30 e0       	ldi	r19, 0x00	; 0
    15ac:	04 c0       	rjmp	.+8      	; 0x15b6 <__stack+0x4b7>
    15ae:	14 fd       	sbrc	r17, 4
    15b0:	16 60       	ori	r17, 0x06	; 6
    15b2:	20 e1       	ldi	r18, 0x10	; 16
    15b4:	32 e0       	ldi	r19, 0x02	; 2
    15b6:	17 ff       	sbrs	r17, 7
    15b8:	08 c0       	rjmp	.+16     	; 0x15ca <__stack+0x4cb>
    15ba:	f6 01       	movw	r30, r12
    15bc:	60 81       	ld	r22, Z
    15be:	71 81       	ldd	r23, Z+1	; 0x01
    15c0:	82 81       	ldd	r24, Z+2	; 0x02
    15c2:	93 81       	ldd	r25, Z+3	; 0x03
    15c4:	44 e0       	ldi	r20, 0x04	; 4
    15c6:	50 e0       	ldi	r21, 0x00	; 0
    15c8:	08 c0       	rjmp	.+16     	; 0x15da <__stack+0x4db>
    15ca:	f6 01       	movw	r30, r12
    15cc:	80 81       	ld	r24, Z
    15ce:	91 81       	ldd	r25, Z+1	; 0x01
    15d0:	bc 01       	movw	r22, r24
    15d2:	80 e0       	ldi	r24, 0x00	; 0
    15d4:	90 e0       	ldi	r25, 0x00	; 0
    15d6:	42 e0       	ldi	r20, 0x02	; 2
    15d8:	50 e0       	ldi	r21, 0x00	; 0
    15da:	c4 0e       	add	r12, r20
    15dc:	d5 1e       	adc	r13, r21
    15de:	ae 01       	movw	r20, r28
    15e0:	4f 5f       	subi	r20, 0xFF	; 255
    15e2:	5f 4f       	sbci	r21, 0xFF	; 255
    15e4:	0e 94 d9 11 	call	0x23b2	; 0x23b2 <__ultoa_invert>
    15e8:	e8 2e       	mov	r14, r24
    15ea:	58 89       	ldd	r21, Y+16	; 0x10
    15ec:	e5 1a       	sub	r14, r21
    15ee:	8f e7       	ldi	r24, 0x7F	; 127
    15f0:	f8 2e       	mov	r15, r24
    15f2:	f1 22       	and	r15, r17
    15f4:	f6 fe       	sbrs	r15, 6
    15f6:	0b c0       	rjmp	.+22     	; 0x160e <__stack+0x50f>
    15f8:	8e ef       	ldi	r24, 0xFE	; 254
    15fa:	f8 22       	and	r15, r24
    15fc:	e9 14       	cp	r14, r9
    15fe:	38 f4       	brcc	.+14     	; 0x160e <__stack+0x50f>
    1600:	f4 fe       	sbrs	r15, 4
    1602:	07 c0       	rjmp	.+14     	; 0x1612 <__stack+0x513>
    1604:	f2 fc       	sbrc	r15, 2
    1606:	05 c0       	rjmp	.+10     	; 0x1612 <__stack+0x513>
    1608:	9f ee       	ldi	r25, 0xEF	; 239
    160a:	f9 22       	and	r15, r25
    160c:	02 c0       	rjmp	.+4      	; 0x1612 <__stack+0x513>
    160e:	1e 2d       	mov	r17, r14
    1610:	01 c0       	rjmp	.+2      	; 0x1614 <__stack+0x515>
    1612:	19 2d       	mov	r17, r9
    1614:	f4 fe       	sbrs	r15, 4
    1616:	0d c0       	rjmp	.+26     	; 0x1632 <__stack+0x533>
    1618:	fe 01       	movw	r30, r28
    161a:	ee 0d       	add	r30, r14
    161c:	f1 1d       	adc	r31, r1
    161e:	80 81       	ld	r24, Z
    1620:	80 33       	cpi	r24, 0x30	; 48
    1622:	19 f4       	brne	.+6      	; 0x162a <__stack+0x52b>
    1624:	e9 ee       	ldi	r30, 0xE9	; 233
    1626:	fe 22       	and	r15, r30
    1628:	08 c0       	rjmp	.+16     	; 0x163a <__stack+0x53b>
    162a:	1f 5f       	subi	r17, 0xFF	; 255
    162c:	f2 fe       	sbrs	r15, 2
    162e:	05 c0       	rjmp	.+10     	; 0x163a <__stack+0x53b>
    1630:	03 c0       	rjmp	.+6      	; 0x1638 <__stack+0x539>
    1632:	8f 2d       	mov	r24, r15
    1634:	86 78       	andi	r24, 0x86	; 134
    1636:	09 f0       	breq	.+2      	; 0x163a <__stack+0x53b>
    1638:	1f 5f       	subi	r17, 0xFF	; 255
    163a:	0f 2d       	mov	r16, r15
    163c:	f3 fc       	sbrc	r15, 3
    163e:	14 c0       	rjmp	.+40     	; 0x1668 <__stack+0x569>
    1640:	f0 fe       	sbrs	r15, 0
    1642:	0f c0       	rjmp	.+30     	; 0x1662 <__stack+0x563>
    1644:	18 15       	cp	r17, r8
    1646:	10 f0       	brcs	.+4      	; 0x164c <__stack+0x54d>
    1648:	9e 2c       	mov	r9, r14
    164a:	0b c0       	rjmp	.+22     	; 0x1662 <__stack+0x563>
    164c:	9e 2c       	mov	r9, r14
    164e:	98 0c       	add	r9, r8
    1650:	91 1a       	sub	r9, r17
    1652:	18 2d       	mov	r17, r8
    1654:	06 c0       	rjmp	.+12     	; 0x1662 <__stack+0x563>
    1656:	80 e2       	ldi	r24, 0x20	; 32
    1658:	90 e0       	ldi	r25, 0x00	; 0
    165a:	b3 01       	movw	r22, r6
    165c:	0e 94 5e 11 	call	0x22bc	; 0x22bc <fputc>
    1660:	1f 5f       	subi	r17, 0xFF	; 255
    1662:	18 15       	cp	r17, r8
    1664:	c0 f3       	brcs	.-16     	; 0x1656 <__stack+0x557>
    1666:	04 c0       	rjmp	.+8      	; 0x1670 <__stack+0x571>
    1668:	18 15       	cp	r17, r8
    166a:	10 f4       	brcc	.+4      	; 0x1670 <__stack+0x571>
    166c:	81 1a       	sub	r8, r17
    166e:	01 c0       	rjmp	.+2      	; 0x1672 <__stack+0x573>
    1670:	88 24       	eor	r8, r8
    1672:	04 ff       	sbrs	r16, 4
    1674:	0f c0       	rjmp	.+30     	; 0x1694 <__stack+0x595>
    1676:	80 e3       	ldi	r24, 0x30	; 48
    1678:	90 e0       	ldi	r25, 0x00	; 0
    167a:	b3 01       	movw	r22, r6
    167c:	0e 94 5e 11 	call	0x22bc	; 0x22bc <fputc>
    1680:	02 ff       	sbrs	r16, 2
    1682:	1d c0       	rjmp	.+58     	; 0x16be <__stack+0x5bf>
    1684:	01 fd       	sbrc	r16, 1
    1686:	03 c0       	rjmp	.+6      	; 0x168e <__stack+0x58f>
    1688:	88 e7       	ldi	r24, 0x78	; 120
    168a:	90 e0       	ldi	r25, 0x00	; 0
    168c:	0e c0       	rjmp	.+28     	; 0x16aa <__stack+0x5ab>
    168e:	88 e5       	ldi	r24, 0x58	; 88
    1690:	90 e0       	ldi	r25, 0x00	; 0
    1692:	0b c0       	rjmp	.+22     	; 0x16aa <__stack+0x5ab>
    1694:	80 2f       	mov	r24, r16
    1696:	86 78       	andi	r24, 0x86	; 134
    1698:	91 f0       	breq	.+36     	; 0x16be <__stack+0x5bf>
    169a:	01 ff       	sbrs	r16, 1
    169c:	02 c0       	rjmp	.+4      	; 0x16a2 <__stack+0x5a3>
    169e:	8b e2       	ldi	r24, 0x2B	; 43
    16a0:	01 c0       	rjmp	.+2      	; 0x16a4 <__stack+0x5a5>
    16a2:	80 e2       	ldi	r24, 0x20	; 32
    16a4:	f7 fc       	sbrc	r15, 7
    16a6:	8d e2       	ldi	r24, 0x2D	; 45
    16a8:	90 e0       	ldi	r25, 0x00	; 0
    16aa:	b3 01       	movw	r22, r6
    16ac:	0e 94 5e 11 	call	0x22bc	; 0x22bc <fputc>
    16b0:	06 c0       	rjmp	.+12     	; 0x16be <__stack+0x5bf>
    16b2:	80 e3       	ldi	r24, 0x30	; 48
    16b4:	90 e0       	ldi	r25, 0x00	; 0
    16b6:	b3 01       	movw	r22, r6
    16b8:	0e 94 5e 11 	call	0x22bc	; 0x22bc <fputc>
    16bc:	9a 94       	dec	r9
    16be:	e9 14       	cp	r14, r9
    16c0:	c0 f3       	brcs	.-16     	; 0x16b2 <__stack+0x5b3>
    16c2:	ea 94       	dec	r14
    16c4:	e1 e0       	ldi	r30, 0x01	; 1
    16c6:	f0 e0       	ldi	r31, 0x00	; 0
    16c8:	ec 0f       	add	r30, r28
    16ca:	fd 1f       	adc	r31, r29
    16cc:	ee 0d       	add	r30, r14
    16ce:	f1 1d       	adc	r31, r1
    16d0:	80 81       	ld	r24, Z
    16d2:	90 e0       	ldi	r25, 0x00	; 0
    16d4:	b3 01       	movw	r22, r6
    16d6:	0e 94 5e 11 	call	0x22bc	; 0x22bc <fputc>
    16da:	ee 20       	and	r14, r14
    16dc:	91 f7       	brne	.-28     	; 0x16c2 <__stack+0x5c3>
    16de:	06 c0       	rjmp	.+12     	; 0x16ec <__stack+0x5ed>
    16e0:	80 e2       	ldi	r24, 0x20	; 32
    16e2:	90 e0       	ldi	r25, 0x00	; 0
    16e4:	b3 01       	movw	r22, r6
    16e6:	0e 94 5e 11 	call	0x22bc	; 0x22bc <fputc>
    16ea:	8a 94       	dec	r8
    16ec:	88 20       	and	r8, r8
    16ee:	c1 f7       	brne	.-16     	; 0x16e0 <__stack+0x5e1>
    16f0:	99 cc       	rjmp	.-1742   	; 0x1024 <vfprintf+0x58>
    16f2:	f3 01       	movw	r30, r6
    16f4:	66 81       	ldd	r22, Z+6	; 0x06
    16f6:	77 81       	ldd	r23, Z+7	; 0x07
    16f8:	cb 01       	movw	r24, r22
    16fa:	61 96       	adiw	r28, 0x11	; 17
    16fc:	0f b6       	in	r0, 0x3f	; 63
    16fe:	f8 94       	cli
    1700:	de bf       	out	0x3e, r29	; 62
    1702:	0f be       	out	0x3f, r0	; 63
    1704:	cd bf       	out	0x3d, r28	; 61
    1706:	cf 91       	pop	r28
    1708:	df 91       	pop	r29
    170a:	1f 91       	pop	r17
    170c:	0f 91       	pop	r16
    170e:	ff 90       	pop	r15
    1710:	ef 90       	pop	r14
    1712:	df 90       	pop	r13
    1714:	cf 90       	pop	r12
    1716:	bf 90       	pop	r11
    1718:	af 90       	pop	r10
    171a:	9f 90       	pop	r9
    171c:	8f 90       	pop	r8
    171e:	7f 90       	pop	r7
    1720:	6f 90       	pop	r6
    1722:	5f 90       	pop	r5
    1724:	4f 90       	pop	r4
    1726:	3f 90       	pop	r3
    1728:	2f 90       	pop	r2
    172a:	08 95       	ret

0000172c <putval>:
    172c:	fc 01       	movw	r30, r24
    172e:	20 fd       	sbrc	r18, 0
    1730:	08 c0       	rjmp	.+16     	; 0x1742 <putval+0x16>
    1732:	23 fd       	sbrc	r18, 3
    1734:	05 c0       	rjmp	.+10     	; 0x1740 <putval+0x14>
    1736:	22 ff       	sbrs	r18, 2
    1738:	02 c0       	rjmp	.+4      	; 0x173e <putval+0x12>
    173a:	73 83       	std	Z+3, r23	; 0x03
    173c:	62 83       	std	Z+2, r22	; 0x02
    173e:	51 83       	std	Z+1, r21	; 0x01
    1740:	40 83       	st	Z, r20
    1742:	08 95       	ret

00001744 <mulacc>:
    1744:	ef 92       	push	r14
    1746:	ff 92       	push	r15
    1748:	0f 93       	push	r16
    174a:	1f 93       	push	r17
    174c:	44 ff       	sbrs	r20, 4
    174e:	02 c0       	rjmp	.+4      	; 0x1754 <mulacc+0x10>
    1750:	33 e0       	ldi	r19, 0x03	; 3
    1752:	11 c0       	rjmp	.+34     	; 0x1776 <mulacc+0x32>
    1754:	46 ff       	sbrs	r20, 6
    1756:	02 c0       	rjmp	.+4      	; 0x175c <mulacc+0x18>
    1758:	34 e0       	ldi	r19, 0x04	; 4
    175a:	0d c0       	rjmp	.+26     	; 0x1776 <mulacc+0x32>
    175c:	db 01       	movw	r26, r22
    175e:	fc 01       	movw	r30, r24
    1760:	aa 0f       	add	r26, r26
    1762:	bb 1f       	adc	r27, r27
    1764:	ee 1f       	adc	r30, r30
    1766:	ff 1f       	adc	r31, r31
    1768:	10 94       	com	r1
    176a:	d1 f7       	brne	.-12     	; 0x1760 <mulacc+0x1c>
    176c:	6a 0f       	add	r22, r26
    176e:	7b 1f       	adc	r23, r27
    1770:	8e 1f       	adc	r24, r30
    1772:	9f 1f       	adc	r25, r31
    1774:	31 e0       	ldi	r19, 0x01	; 1
    1776:	66 0f       	add	r22, r22
    1778:	77 1f       	adc	r23, r23
    177a:	88 1f       	adc	r24, r24
    177c:	99 1f       	adc	r25, r25
    177e:	31 50       	subi	r19, 0x01	; 1
    1780:	d1 f7       	brne	.-12     	; 0x1776 <mulacc+0x32>
    1782:	7b 01       	movw	r14, r22
    1784:	8c 01       	movw	r16, r24
    1786:	e2 0e       	add	r14, r18
    1788:	f1 1c       	adc	r15, r1
    178a:	01 1d       	adc	r16, r1
    178c:	11 1d       	adc	r17, r1
    178e:	a8 01       	movw	r20, r16
    1790:	97 01       	movw	r18, r14
    1792:	b7 01       	movw	r22, r14
    1794:	ca 01       	movw	r24, r20
    1796:	1f 91       	pop	r17
    1798:	0f 91       	pop	r16
    179a:	ff 90       	pop	r15
    179c:	ef 90       	pop	r14
    179e:	08 95       	ret

000017a0 <skip_spaces>:
    17a0:	0f 93       	push	r16
    17a2:	1f 93       	push	r17
    17a4:	cf 93       	push	r28
    17a6:	df 93       	push	r29
    17a8:	8c 01       	movw	r16, r24
    17aa:	c8 01       	movw	r24, r16
    17ac:	0e 94 1c 11 	call	0x2238	; 0x2238 <fgetc>
    17b0:	ec 01       	movw	r28, r24
    17b2:	97 fd       	sbrc	r25, 7
    17b4:	08 c0       	rjmp	.+16     	; 0x17c6 <skip_spaces+0x26>
    17b6:	0e 94 eb 10 	call	0x21d6	; 0x21d6 <isspace>
    17ba:	89 2b       	or	r24, r25
    17bc:	b1 f7       	brne	.-20     	; 0x17aa <skip_spaces+0xa>
    17be:	ce 01       	movw	r24, r28
    17c0:	b8 01       	movw	r22, r16
    17c2:	0e 94 bf 11 	call	0x237e	; 0x237e <ungetc>
    17c6:	ce 01       	movw	r24, r28
    17c8:	df 91       	pop	r29
    17ca:	cf 91       	pop	r28
    17cc:	1f 91       	pop	r17
    17ce:	0f 91       	pop	r16
    17d0:	08 95       	ret

000017d2 <conv_int>:
    17d2:	8f 92       	push	r8
    17d4:	9f 92       	push	r9
    17d6:	af 92       	push	r10
    17d8:	bf 92       	push	r11
    17da:	df 92       	push	r13
    17dc:	ef 92       	push	r14
    17de:	ff 92       	push	r15
    17e0:	0f 93       	push	r16
    17e2:	1f 93       	push	r17
    17e4:	cf 93       	push	r28
    17e6:	df 93       	push	r29
    17e8:	5c 01       	movw	r10, r24
    17ea:	eb 01       	movw	r28, r22
    17ec:	4a 01       	movw	r8, r20
    17ee:	12 2f       	mov	r17, r18
    17f0:	0e 94 1c 11 	call	0x2238	; 0x2238 <fgetc>
    17f4:	ac 01       	movw	r20, r24
    17f6:	8b 32       	cpi	r24, 0x2B	; 43
    17f8:	19 f0       	breq	.+6      	; 0x1800 <conv_int+0x2e>
    17fa:	8d 32       	cpi	r24, 0x2D	; 45
    17fc:	51 f4       	brne	.+20     	; 0x1812 <conv_int+0x40>
    17fe:	10 68       	ori	r17, 0x80	; 128
    1800:	21 97       	sbiw	r28, 0x01	; 1
    1802:	09 f4       	brne	.+2      	; 0x1806 <conv_int+0x34>
    1804:	6d c0       	rjmp	.+218    	; 0x18e0 <conv_int+0x10e>
    1806:	c5 01       	movw	r24, r10
    1808:	0e 94 1c 11 	call	0x2238	; 0x2238 <fgetc>
    180c:	ac 01       	movw	r20, r24
    180e:	97 fd       	sbrc	r25, 7
    1810:	67 c0       	rjmp	.+206    	; 0x18e0 <conv_int+0x10e>
    1812:	6d ef       	ldi	r22, 0xFD	; 253
    1814:	d6 2e       	mov	r13, r22
    1816:	d1 22       	and	r13, r17
    1818:	8d 2d       	mov	r24, r13
    181a:	80 73       	andi	r24, 0x30	; 48
    181c:	01 f5       	brne	.+64     	; 0x185e <conv_int+0x8c>
    181e:	40 33       	cpi	r20, 0x30	; 48
    1820:	f1 f4       	brne	.+60     	; 0x185e <conv_int+0x8c>
    1822:	21 97       	sbiw	r28, 0x01	; 1
    1824:	09 f4       	brne	.+2      	; 0x1828 <conv_int+0x56>
    1826:	47 c0       	rjmp	.+142    	; 0x18b6 <conv_int+0xe4>
    1828:	c5 01       	movw	r24, r10
    182a:	0e 94 1c 11 	call	0x2238	; 0x2238 <fgetc>
    182e:	ac 01       	movw	r20, r24
    1830:	97 fd       	sbrc	r25, 7
    1832:	41 c0       	rjmp	.+130    	; 0x18b6 <conv_int+0xe4>
    1834:	82 e0       	ldi	r24, 0x02	; 2
    1836:	d8 2a       	or	r13, r24
    1838:	48 37       	cpi	r20, 0x78	; 120
    183a:	11 f0       	breq	.+4      	; 0x1840 <conv_int+0x6e>
    183c:	48 35       	cpi	r20, 0x58	; 88
    183e:	59 f4       	brne	.+22     	; 0x1856 <conv_int+0x84>
    1840:	80 e4       	ldi	r24, 0x40	; 64
    1842:	d8 2a       	or	r13, r24
    1844:	21 97       	sbiw	r28, 0x01	; 1
    1846:	b9 f1       	breq	.+110    	; 0x18b6 <conv_int+0xe4>
    1848:	c5 01       	movw	r24, r10
    184a:	0e 94 1c 11 	call	0x2238	; 0x2238 <fgetc>
    184e:	ac 01       	movw	r20, r24
    1850:	99 23       	and	r25, r25
    1852:	2c f4       	brge	.+10     	; 0x185e <conv_int+0x8c>
    1854:	30 c0       	rjmp	.+96     	; 0x18b6 <conv_int+0xe4>
    1856:	d6 fc       	sbrc	r13, 6
    1858:	02 c0       	rjmp	.+4      	; 0x185e <conv_int+0x8c>
    185a:	80 e1       	ldi	r24, 0x10	; 16
    185c:	d8 2a       	or	r13, r24
    185e:	ee 24       	eor	r14, r14
    1860:	ff 24       	eor	r15, r15
    1862:	87 01       	movw	r16, r14
    1864:	24 2f       	mov	r18, r20
    1866:	20 53       	subi	r18, 0x30	; 48
    1868:	28 30       	cpi	r18, 0x08	; 8
    186a:	88 f0       	brcs	.+34     	; 0x188e <conv_int+0xbc>
    186c:	d4 fc       	sbrc	r13, 4
    186e:	09 c0       	rjmp	.+18     	; 0x1882 <conv_int+0xb0>
    1870:	2a 30       	cpi	r18, 0x0A	; 10
    1872:	68 f0       	brcs	.+26     	; 0x188e <conv_int+0xbc>
    1874:	d6 fe       	sbrs	r13, 6
    1876:	05 c0       	rjmp	.+10     	; 0x1882 <conv_int+0xb0>
    1878:	2f 7d       	andi	r18, 0xDF	; 223
    187a:	82 2f       	mov	r24, r18
    187c:	81 51       	subi	r24, 0x11	; 17
    187e:	86 30       	cpi	r24, 0x06	; 6
    1880:	28 f0       	brcs	.+10     	; 0x188c <conv_int+0xba>
    1882:	ca 01       	movw	r24, r20
    1884:	b5 01       	movw	r22, r10
    1886:	0e 94 bf 11 	call	0x237e	; 0x237e <ungetc>
    188a:	12 c0       	rjmp	.+36     	; 0x18b0 <conv_int+0xde>
    188c:	27 50       	subi	r18, 0x07	; 7
    188e:	c8 01       	movw	r24, r16
    1890:	b7 01       	movw	r22, r14
    1892:	4d 2d       	mov	r20, r13
    1894:	0e 94 a2 0b 	call	0x1744	; 0x1744 <mulacc>
    1898:	7b 01       	movw	r14, r22
    189a:	8c 01       	movw	r16, r24
    189c:	82 e0       	ldi	r24, 0x02	; 2
    189e:	d8 2a       	or	r13, r24
    18a0:	21 97       	sbiw	r28, 0x01	; 1
    18a2:	61 f0       	breq	.+24     	; 0x18bc <conv_int+0xea>
    18a4:	c5 01       	movw	r24, r10
    18a6:	0e 94 1c 11 	call	0x2238	; 0x2238 <fgetc>
    18aa:	ac 01       	movw	r20, r24
    18ac:	97 ff       	sbrs	r25, 7
    18ae:	da cf       	rjmp	.-76     	; 0x1864 <conv_int+0x92>
    18b0:	d1 fc       	sbrc	r13, 1
    18b2:	04 c0       	rjmp	.+8      	; 0x18bc <conv_int+0xea>
    18b4:	15 c0       	rjmp	.+42     	; 0x18e0 <conv_int+0x10e>
    18b6:	ee 24       	eor	r14, r14
    18b8:	ff 24       	eor	r15, r15
    18ba:	87 01       	movw	r16, r14
    18bc:	d7 fe       	sbrs	r13, 7
    18be:	08 c0       	rjmp	.+16     	; 0x18d0 <conv_int+0xfe>
    18c0:	10 95       	com	r17
    18c2:	00 95       	com	r16
    18c4:	f0 94       	com	r15
    18c6:	e0 94       	com	r14
    18c8:	e1 1c       	adc	r14, r1
    18ca:	f1 1c       	adc	r15, r1
    18cc:	01 1d       	adc	r16, r1
    18ce:	11 1d       	adc	r17, r1
    18d0:	c4 01       	movw	r24, r8
    18d2:	b8 01       	movw	r22, r16
    18d4:	a7 01       	movw	r20, r14
    18d6:	2d 2d       	mov	r18, r13
    18d8:	0e 94 96 0b 	call	0x172c	; 0x172c <putval>
    18dc:	81 e0       	ldi	r24, 0x01	; 1
    18de:	01 c0       	rjmp	.+2      	; 0x18e2 <conv_int+0x110>
    18e0:	80 e0       	ldi	r24, 0x00	; 0
    18e2:	df 91       	pop	r29
    18e4:	cf 91       	pop	r28
    18e6:	1f 91       	pop	r17
    18e8:	0f 91       	pop	r16
    18ea:	ff 90       	pop	r15
    18ec:	ef 90       	pop	r14
    18ee:	df 90       	pop	r13
    18f0:	bf 90       	pop	r11
    18f2:	af 90       	pop	r10
    18f4:	9f 90       	pop	r9
    18f6:	8f 90       	pop	r8
    18f8:	08 95       	ret

000018fa <conv_brk>:
    18fa:	6f 92       	push	r6
    18fc:	7f 92       	push	r7
    18fe:	8f 92       	push	r8
    1900:	9f 92       	push	r9
    1902:	af 92       	push	r10
    1904:	bf 92       	push	r11
    1906:	cf 92       	push	r12
    1908:	df 92       	push	r13
    190a:	ef 92       	push	r14
    190c:	ff 92       	push	r15
    190e:	0f 93       	push	r16
    1910:	1f 93       	push	r17
    1912:	df 93       	push	r29
    1914:	cf 93       	push	r28
    1916:	cd b7       	in	r28, 0x3d	; 61
    1918:	de b7       	in	r29, 0x3e	; 62
    191a:	a0 97       	sbiw	r28, 0x20	; 32
    191c:	0f b6       	in	r0, 0x3f	; 63
    191e:	f8 94       	cli
    1920:	de bf       	out	0x3e, r29	; 62
    1922:	0f be       	out	0x3f, r0	; 63
    1924:	cd bf       	out	0x3d, r28	; 61
    1926:	5c 01       	movw	r10, r24
    1928:	6b 01       	movw	r12, r22
    192a:	8a 01       	movw	r16, r20
    192c:	79 01       	movw	r14, r18
    192e:	fe 01       	movw	r30, r28
    1930:	31 96       	adiw	r30, 0x01	; 1
    1932:	80 e2       	ldi	r24, 0x20	; 32
    1934:	df 01       	movw	r26, r30
    1936:	1d 92       	st	X+, r1
    1938:	8a 95       	dec	r24
    193a:	e9 f7       	brne	.-6      	; 0x1936 <conv_brk+0x3c>
    193c:	70 e0       	ldi	r23, 0x00	; 0
    193e:	30 e0       	ldi	r19, 0x00	; 0
    1940:	60 e0       	ldi	r22, 0x00	; 0
    1942:	40 e0       	ldi	r20, 0x00	; 0
    1944:	50 e0       	ldi	r21, 0x00	; 0
    1946:	3f 01       	movw	r6, r30
    1948:	a1 e0       	ldi	r26, 0x01	; 1
    194a:	b0 e0       	ldi	r27, 0x00	; 0
    194c:	f5 01       	movw	r30, r10
    194e:	83 81       	ldd	r24, Z+3	; 0x03
    1950:	f7 01       	movw	r30, r14
    1952:	83 fd       	sbrc	r24, 3
    1954:	25 91       	lpm	r18, Z+
    1956:	83 ff       	sbrs	r24, 3
    1958:	21 91       	ld	r18, Z+
    195a:	7f 01       	movw	r14, r30
    195c:	22 23       	and	r18, r18
    195e:	09 f4       	brne	.+2      	; 0x1962 <conv_brk+0x68>
    1960:	81 c0       	rjmp	.+258    	; 0x1a64 <conv_brk+0x16a>
    1962:	2e 35       	cpi	r18, 0x5E	; 94
    1964:	19 f4       	brne	.+6      	; 0x196c <conv_brk+0x72>
    1966:	41 15       	cp	r20, r1
    1968:	51 05       	cpc	r21, r1
    196a:	69 f1       	breq	.+90     	; 0x19c6 <conv_brk+0xcc>
    196c:	87 2f       	mov	r24, r23
    196e:	90 e0       	ldi	r25, 0x00	; 0
    1970:	84 17       	cp	r24, r20
    1972:	95 07       	cpc	r25, r21
    1974:	44 f4       	brge	.+16     	; 0x1986 <conv_brk+0x8c>
    1976:	2d 35       	cpi	r18, 0x5D	; 93
    1978:	51 f1       	breq	.+84     	; 0x19ce <conv_brk+0xd4>
    197a:	2d 32       	cpi	r18, 0x2D	; 45
    197c:	21 f4       	brne	.+8      	; 0x1986 <conv_brk+0x8c>
    197e:	33 23       	and	r19, r19
    1980:	29 f4       	brne	.+10     	; 0x198c <conv_brk+0x92>
    1982:	31 e0       	ldi	r19, 0x01	; 1
    1984:	21 c0       	rjmp	.+66     	; 0x19c8 <conv_brk+0xce>
    1986:	33 23       	and	r19, r19
    1988:	09 f4       	brne	.+2      	; 0x198c <conv_brk+0x92>
    198a:	62 2f       	mov	r22, r18
    198c:	32 2f       	mov	r19, r18
    198e:	83 2f       	mov	r24, r19
    1990:	86 95       	lsr	r24
    1992:	86 95       	lsr	r24
    1994:	86 95       	lsr	r24
    1996:	f3 01       	movw	r30, r6
    1998:	e8 0f       	add	r30, r24
    199a:	f1 1d       	adc	r31, r1
    199c:	83 2f       	mov	r24, r19
    199e:	87 70       	andi	r24, 0x07	; 7
    19a0:	4d 01       	movw	r8, r26
    19a2:	02 c0       	rjmp	.+4      	; 0x19a8 <conv_brk+0xae>
    19a4:	88 0c       	add	r8, r8
    19a6:	99 1c       	adc	r9, r9
    19a8:	8a 95       	dec	r24
    19aa:	e2 f7       	brpl	.-8      	; 0x19a4 <conv_brk+0xaa>
    19ac:	20 81       	ld	r18, Z
    19ae:	28 29       	or	r18, r8
    19b0:	20 83       	st	Z, r18
    19b2:	36 17       	cp	r19, r22
    19b4:	11 f4       	brne	.+4      	; 0x19ba <conv_brk+0xc0>
    19b6:	30 e0       	ldi	r19, 0x00	; 0
    19b8:	07 c0       	rjmp	.+14     	; 0x19c8 <conv_brk+0xce>
    19ba:	36 17       	cp	r19, r22
    19bc:	10 f4       	brcc	.+4      	; 0x19c2 <conv_brk+0xc8>
    19be:	3f 5f       	subi	r19, 0xFF	; 255
    19c0:	e6 cf       	rjmp	.-52     	; 0x198e <conv_brk+0x94>
    19c2:	31 50       	subi	r19, 0x01	; 1
    19c4:	e4 cf       	rjmp	.-56     	; 0x198e <conv_brk+0x94>
    19c6:	71 e0       	ldi	r23, 0x01	; 1
    19c8:	4f 5f       	subi	r20, 0xFF	; 255
    19ca:	5f 4f       	sbci	r21, 0xFF	; 255
    19cc:	bf cf       	rjmp	.-130    	; 0x194c <conv_brk+0x52>
    19ce:	33 23       	and	r19, r19
    19d0:	19 f0       	breq	.+6      	; 0x19d8 <conv_brk+0xde>
    19d2:	8e 81       	ldd	r24, Y+6	; 0x06
    19d4:	80 62       	ori	r24, 0x20	; 32
    19d6:	8e 83       	std	Y+6, r24	; 0x06
    19d8:	77 23       	and	r23, r23
    19da:	59 f0       	breq	.+22     	; 0x19f2 <conv_brk+0xf8>
    19dc:	fe 01       	movw	r30, r28
    19de:	31 96       	adiw	r30, 0x01	; 1
    19e0:	9e 01       	movw	r18, r28
    19e2:	2f 5d       	subi	r18, 0xDF	; 223
    19e4:	3f 4f       	sbci	r19, 0xFF	; 255
    19e6:	80 81       	ld	r24, Z
    19e8:	80 95       	com	r24
    19ea:	81 93       	st	Z+, r24
    19ec:	e2 17       	cp	r30, r18
    19ee:	f3 07       	cpc	r31, r19
    19f0:	d1 f7       	brne	.-12     	; 0x19e6 <conv_brk+0xec>
    19f2:	99 24       	eor	r9, r9
    19f4:	93 94       	inc	r9
    19f6:	3e 01       	movw	r6, r28
    19f8:	08 94       	sec
    19fa:	61 1c       	adc	r6, r1
    19fc:	71 1c       	adc	r7, r1
    19fe:	c5 01       	movw	r24, r10
    1a00:	0e 94 1c 11 	call	0x2238	; 0x2238 <fgetc>
    1a04:	ac 01       	movw	r20, r24
    1a06:	97 fd       	sbrc	r25, 7
    1a08:	25 c0       	rjmp	.+74     	; 0x1a54 <conv_brk+0x15a>
    1a0a:	86 95       	lsr	r24
    1a0c:	86 95       	lsr	r24
    1a0e:	86 95       	lsr	r24
    1a10:	f3 01       	movw	r30, r6
    1a12:	e8 0f       	add	r30, r24
    1a14:	f1 1d       	adc	r31, r1
    1a16:	80 81       	ld	r24, Z
    1a18:	90 e0       	ldi	r25, 0x00	; 0
    1a1a:	9a 01       	movw	r18, r20
    1a1c:	27 70       	andi	r18, 0x07	; 7
    1a1e:	30 70       	andi	r19, 0x00	; 0
    1a20:	02 c0       	rjmp	.+4      	; 0x1a26 <conv_brk+0x12c>
    1a22:	95 95       	asr	r25
    1a24:	87 95       	ror	r24
    1a26:	2a 95       	dec	r18
    1a28:	e2 f7       	brpl	.-8      	; 0x1a22 <conv_brk+0x128>
    1a2a:	80 fd       	sbrc	r24, 0
    1a2c:	05 c0       	rjmp	.+10     	; 0x1a38 <conv_brk+0x13e>
    1a2e:	ca 01       	movw	r24, r20
    1a30:	b5 01       	movw	r22, r10
    1a32:	0e 94 bf 11 	call	0x237e	; 0x237e <ungetc>
    1a36:	0e c0       	rjmp	.+28     	; 0x1a54 <conv_brk+0x15a>
    1a38:	01 15       	cp	r16, r1
    1a3a:	11 05       	cpc	r17, r1
    1a3c:	19 f0       	breq	.+6      	; 0x1a44 <conv_brk+0x14a>
    1a3e:	d8 01       	movw	r26, r16
    1a40:	4d 93       	st	X+, r20
    1a42:	8d 01       	movw	r16, r26
    1a44:	08 94       	sec
    1a46:	c1 08       	sbc	r12, r1
    1a48:	d1 08       	sbc	r13, r1
    1a4a:	99 24       	eor	r9, r9
    1a4c:	c1 14       	cp	r12, r1
    1a4e:	d1 04       	cpc	r13, r1
    1a50:	b1 f6       	brne	.-84     	; 0x19fe <conv_brk+0x104>
    1a52:	02 c0       	rjmp	.+4      	; 0x1a58 <conv_brk+0x15e>
    1a54:	99 20       	and	r9, r9
    1a56:	31 f4       	brne	.+12     	; 0x1a64 <conv_brk+0x16a>
    1a58:	01 15       	cp	r16, r1
    1a5a:	11 05       	cpc	r17, r1
    1a5c:	29 f0       	breq	.+10     	; 0x1a68 <conv_brk+0x16e>
    1a5e:	f8 01       	movw	r30, r16
    1a60:	10 82       	st	Z, r1
    1a62:	02 c0       	rjmp	.+4      	; 0x1a68 <conv_brk+0x16e>
    1a64:	ee 24       	eor	r14, r14
    1a66:	ff 24       	eor	r15, r15
    1a68:	c7 01       	movw	r24, r14
    1a6a:	a0 96       	adiw	r28, 0x20	; 32
    1a6c:	0f b6       	in	r0, 0x3f	; 63
    1a6e:	f8 94       	cli
    1a70:	de bf       	out	0x3e, r29	; 62
    1a72:	0f be       	out	0x3f, r0	; 63
    1a74:	cd bf       	out	0x3d, r28	; 61
    1a76:	cf 91       	pop	r28
    1a78:	df 91       	pop	r29
    1a7a:	1f 91       	pop	r17
    1a7c:	0f 91       	pop	r16
    1a7e:	ff 90       	pop	r15
    1a80:	ef 90       	pop	r14
    1a82:	df 90       	pop	r13
    1a84:	cf 90       	pop	r12
    1a86:	bf 90       	pop	r11
    1a88:	af 90       	pop	r10
    1a8a:	9f 90       	pop	r9
    1a8c:	8f 90       	pop	r8
    1a8e:	7f 90       	pop	r7
    1a90:	6f 90       	pop	r6
    1a92:	08 95       	ret

00001a94 <conv_flt>:
    1a94:	2f 92       	push	r2
    1a96:	3f 92       	push	r3
    1a98:	5f 92       	push	r5
    1a9a:	6f 92       	push	r6
    1a9c:	7f 92       	push	r7
    1a9e:	8f 92       	push	r8
    1aa0:	9f 92       	push	r9
    1aa2:	af 92       	push	r10
    1aa4:	bf 92       	push	r11
    1aa6:	cf 92       	push	r12
    1aa8:	df 92       	push	r13
    1aaa:	ef 92       	push	r14
    1aac:	ff 92       	push	r15
    1aae:	0f 93       	push	r16
    1ab0:	1f 93       	push	r17
    1ab2:	cf 93       	push	r28
    1ab4:	df 93       	push	r29
    1ab6:	3c 01       	movw	r6, r24
    1ab8:	7b 01       	movw	r14, r22
    1aba:	1a 01       	movw	r2, r20
    1abc:	0e 94 1c 11 	call	0x2238	; 0x2238 <fgetc>
    1ac0:	ec 01       	movw	r28, r24
    1ac2:	8b 32       	cpi	r24, 0x2B	; 43
    1ac4:	39 f0       	breq	.+14     	; 0x1ad4 <conv_flt+0x40>
    1ac6:	8d 32       	cpi	r24, 0x2D	; 45
    1ac8:	11 f0       	breq	.+4      	; 0x1ace <conv_flt+0x3a>
    1aca:	55 24       	eor	r5, r5
    1acc:	11 c0       	rjmp	.+34     	; 0x1af0 <conv_flt+0x5c>
    1ace:	b0 e8       	ldi	r27, 0x80	; 128
    1ad0:	5b 2e       	mov	r5, r27
    1ad2:	01 c0       	rjmp	.+2      	; 0x1ad6 <conv_flt+0x42>
    1ad4:	55 24       	eor	r5, r5
    1ad6:	08 94       	sec
    1ad8:	e1 08       	sbc	r14, r1
    1ada:	f1 08       	sbc	r15, r1
    1adc:	e1 14       	cp	r14, r1
    1ade:	f1 04       	cpc	r15, r1
    1ae0:	09 f4       	brne	.+2      	; 0x1ae4 <conv_flt+0x50>
    1ae2:	18 c1       	rjmp	.+560    	; 0x1d14 <conv_flt+0x280>
    1ae4:	c3 01       	movw	r24, r6
    1ae6:	0e 94 1c 11 	call	0x2238	; 0x2238 <fgetc>
    1aea:	ec 01       	movw	r28, r24
    1aec:	97 fd       	sbrc	r25, 7
    1aee:	12 c1       	rjmp	.+548    	; 0x1d14 <conv_flt+0x280>
    1af0:	ce 01       	movw	r24, r28
    1af2:	0e 94 f3 10 	call	0x21e6	; 0x21e6 <tolower>
    1af6:	89 36       	cpi	r24, 0x69	; 105
    1af8:	91 05       	cpc	r25, r1
    1afa:	21 f0       	breq	.+8      	; 0x1b04 <conv_flt+0x70>
    1afc:	8e 36       	cpi	r24, 0x6E	; 110
    1afe:	91 05       	cpc	r25, r1
    1b00:	99 f5       	brne	.+102    	; 0x1b68 <conv_flt+0xd4>
    1b02:	1d c0       	rjmp	.+58     	; 0x1b3e <conv_flt+0xaa>
    1b04:	09 ea       	ldi	r16, 0xA9	; 169
    1b06:	10 e0       	ldi	r17, 0x00	; 0
    1b08:	1c c0       	rjmp	.+56     	; 0x1b42 <conv_flt+0xae>
    1b0a:	08 94       	sec
    1b0c:	e1 08       	sbc	r14, r1
    1b0e:	f1 08       	sbc	r15, r1
    1b10:	e1 14       	cp	r14, r1
    1b12:	f1 04       	cpc	r15, r1
    1b14:	71 f0       	breq	.+28     	; 0x1b32 <conv_flt+0x9e>
    1b16:	c3 01       	movw	r24, r6
    1b18:	0e 94 1c 11 	call	0x2238	; 0x2238 <fgetc>
    1b1c:	ec 01       	movw	r28, r24
    1b1e:	97 fd       	sbrc	r25, 7
    1b20:	08 c0       	rjmp	.+16     	; 0x1b32 <conv_flt+0x9e>
    1b22:	0e 94 f3 10 	call	0x21e6	; 0x21e6 <tolower>
    1b26:	d8 16       	cp	r13, r24
    1b28:	61 f0       	breq	.+24     	; 0x1b42 <conv_flt+0xae>
    1b2a:	ce 01       	movw	r24, r28
    1b2c:	b3 01       	movw	r22, r6
    1b2e:	0e 94 bf 11 	call	0x237e	; 0x237e <ungetc>
    1b32:	20 e0       	ldi	r18, 0x00	; 0
    1b34:	0c 3a       	cpi	r16, 0xAC	; 172
    1b36:	12 07       	cpc	r17, r18
    1b38:	09 f0       	breq	.+2      	; 0x1b3c <conv_flt+0xa8>
    1b3a:	ec c0       	rjmp	.+472    	; 0x1d14 <conv_flt+0x280>
    1b3c:	08 c0       	rjmp	.+16     	; 0x1b4e <conv_flt+0xba>
    1b3e:	06 ea       	ldi	r16, 0xA6	; 166
    1b40:	10 e0       	ldi	r17, 0x00	; 0
    1b42:	f8 01       	movw	r30, r16
    1b44:	0f 5f       	subi	r16, 0xFF	; 255
    1b46:	1f 4f       	sbci	r17, 0xFF	; 255
    1b48:	d4 90       	lpm	r13, Z+
    1b4a:	dd 20       	and	r13, r13
    1b4c:	f1 f6       	brne	.-68     	; 0x1b0a <conv_flt+0x76>
    1b4e:	09 5a       	subi	r16, 0xA9	; 169
    1b50:	10 40       	sbci	r17, 0x00	; 0
    1b52:	29 f0       	breq	.+10     	; 0x1b5e <conv_flt+0xca>
    1b54:	80 e0       	ldi	r24, 0x00	; 0
    1b56:	90 e0       	ldi	r25, 0x00	; 0
    1b58:	a0 e8       	ldi	r26, 0x80	; 128
    1b5a:	bf e7       	ldi	r27, 0x7F	; 127
    1b5c:	cf c0       	rjmp	.+414    	; 0x1cfc <conv_flt+0x268>
    1b5e:	80 e0       	ldi	r24, 0x00	; 0
    1b60:	90 e0       	ldi	r25, 0x00	; 0
    1b62:	a0 ec       	ldi	r26, 0xC0	; 192
    1b64:	bf e7       	ldi	r27, 0x7F	; 127
    1b66:	ca c0       	rjmp	.+404    	; 0x1cfc <conv_flt+0x268>
    1b68:	cc 24       	eor	r12, r12
    1b6a:	dd 24       	eor	r13, r13
    1b6c:	88 24       	eor	r8, r8
    1b6e:	99 24       	eor	r9, r9
    1b70:	54 01       	movw	r10, r8
    1b72:	ae 01       	movw	r20, r28
    1b74:	40 53       	subi	r20, 0x30	; 48
    1b76:	24 2f       	mov	r18, r20
    1b78:	4a 30       	cpi	r20, 0x0A	; 10
    1b7a:	38 f5       	brcc	.+78     	; 0x1bca <conv_flt+0x136>
    1b7c:	52 e0       	ldi	r21, 0x02	; 2
    1b7e:	55 2a       	or	r5, r21
    1b80:	85 2d       	mov	r24, r5
    1b82:	90 e0       	ldi	r25, 0x00	; 0
    1b84:	ac 01       	movw	r20, r24
    1b86:	48 70       	andi	r20, 0x08	; 8
    1b88:	50 70       	andi	r21, 0x00	; 0
    1b8a:	52 fe       	sbrs	r5, 2
    1b8c:	06 c0       	rjmp	.+12     	; 0x1b9a <conv_flt+0x106>
    1b8e:	45 2b       	or	r20, r21
    1b90:	11 f5       	brne	.+68     	; 0x1bd6 <conv_flt+0x142>
    1b92:	08 94       	sec
    1b94:	c1 1c       	adc	r12, r1
    1b96:	d1 1c       	adc	r13, r1
    1b98:	1e c0       	rjmp	.+60     	; 0x1bd6 <conv_flt+0x142>
    1b9a:	45 2b       	or	r20, r21
    1b9c:	19 f0       	breq	.+6      	; 0x1ba4 <conv_flt+0x110>
    1b9e:	08 94       	sec
    1ba0:	c1 08       	sbc	r12, r1
    1ba2:	d1 08       	sbc	r13, r1
    1ba4:	c5 01       	movw	r24, r10
    1ba6:	b4 01       	movw	r22, r8
    1ba8:	40 e2       	ldi	r20, 0x20	; 32
    1baa:	0e 94 a2 0b 	call	0x1744	; 0x1744 <mulacc>
    1bae:	4b 01       	movw	r8, r22
    1bb0:	5c 01       	movw	r10, r24
    1bb2:	88 e9       	ldi	r24, 0x98	; 152
    1bb4:	88 16       	cp	r8, r24
    1bb6:	89 e9       	ldi	r24, 0x99	; 153
    1bb8:	98 06       	cpc	r9, r24
    1bba:	89 e9       	ldi	r24, 0x99	; 153
    1bbc:	a8 06       	cpc	r10, r24
    1bbe:	89 e1       	ldi	r24, 0x19	; 25
    1bc0:	b8 06       	cpc	r11, r24
    1bc2:	48 f0       	brcs	.+18     	; 0x1bd6 <conv_flt+0x142>
    1bc4:	94 e0       	ldi	r25, 0x04	; 4
    1bc6:	59 2a       	or	r5, r25
    1bc8:	06 c0       	rjmp	.+12     	; 0x1bd6 <conv_flt+0x142>
    1bca:	4e 3f       	cpi	r20, 0xFE	; 254
    1bcc:	81 f4       	brne	.+32     	; 0x1bee <conv_flt+0x15a>
    1bce:	53 fc       	sbrc	r5, 3
    1bd0:	0e c0       	rjmp	.+28     	; 0x1bee <conv_flt+0x15a>
    1bd2:	e8 e0       	ldi	r30, 0x08	; 8
    1bd4:	5e 2a       	or	r5, r30
    1bd6:	08 94       	sec
    1bd8:	e1 08       	sbc	r14, r1
    1bda:	f1 08       	sbc	r15, r1
    1bdc:	e1 14       	cp	r14, r1
    1bde:	f1 04       	cpc	r15, r1
    1be0:	31 f0       	breq	.+12     	; 0x1bee <conv_flt+0x15a>
    1be2:	c3 01       	movw	r24, r6
    1be4:	0e 94 1c 11 	call	0x2238	; 0x2238 <fgetc>
    1be8:	ec 01       	movw	r28, r24
    1bea:	97 ff       	sbrs	r25, 7
    1bec:	c2 cf       	rjmp	.-124    	; 0x1b72 <conv_flt+0xde>
    1bee:	51 fe       	sbrs	r5, 1
    1bf0:	91 c0       	rjmp	.+290    	; 0x1d14 <conv_flt+0x280>
    1bf2:	c5 36       	cpi	r28, 0x65	; 101
    1bf4:	19 f0       	breq	.+6      	; 0x1bfc <conv_flt+0x168>
    1bf6:	c5 34       	cpi	r28, 0x45	; 69
    1bf8:	09 f0       	breq	.+2      	; 0x1bfc <conv_flt+0x168>
    1bfa:	46 c0       	rjmp	.+140    	; 0x1c88 <conv_flt+0x1f4>
    1bfc:	08 94       	sec
    1bfe:	e1 08       	sbc	r14, r1
    1c00:	f1 08       	sbc	r15, r1
    1c02:	e1 14       	cp	r14, r1
    1c04:	f1 04       	cpc	r15, r1
    1c06:	09 f4       	brne	.+2      	; 0x1c0a <conv_flt+0x176>
    1c08:	85 c0       	rjmp	.+266    	; 0x1d14 <conv_flt+0x280>
    1c0a:	c3 01       	movw	r24, r6
    1c0c:	0e 94 1c 11 	call	0x2238	; 0x2238 <fgetc>
    1c10:	ec 01       	movw	r28, r24
    1c12:	97 fd       	sbrc	r25, 7
    1c14:	7f c0       	rjmp	.+254    	; 0x1d14 <conv_flt+0x280>
    1c16:	8b 32       	cpi	r24, 0x2B	; 43
    1c18:	21 f0       	breq	.+8      	; 0x1c22 <conv_flt+0x18e>
    1c1a:	8d 32       	cpi	r24, 0x2D	; 45
    1c1c:	69 f4       	brne	.+26     	; 0x1c38 <conv_flt+0x1a4>
    1c1e:	f0 e1       	ldi	r31, 0x10	; 16
    1c20:	5f 2a       	or	r5, r31
    1c22:	08 94       	sec
    1c24:	e1 08       	sbc	r14, r1
    1c26:	f1 08       	sbc	r15, r1
    1c28:	e1 14       	cp	r14, r1
    1c2a:	f1 04       	cpc	r15, r1
    1c2c:	09 f4       	brne	.+2      	; 0x1c30 <conv_flt+0x19c>
    1c2e:	72 c0       	rjmp	.+228    	; 0x1d14 <conv_flt+0x280>
    1c30:	c3 01       	movw	r24, r6
    1c32:	0e 94 1c 11 	call	0x2238	; 0x2238 <fgetc>
    1c36:	ec 01       	movw	r28, r24
    1c38:	ce 01       	movw	r24, r28
    1c3a:	c0 97       	sbiw	r24, 0x30	; 48
    1c3c:	0a 97       	sbiw	r24, 0x0a	; 10
    1c3e:	08 f0       	brcs	.+2      	; 0x1c42 <conv_flt+0x1ae>
    1c40:	69 c0       	rjmp	.+210    	; 0x1d14 <conv_flt+0x280>
    1c42:	00 e0       	ldi	r16, 0x00	; 0
    1c44:	10 e0       	ldi	r17, 0x00	; 0
    1c46:	b8 01       	movw	r22, r16
    1c48:	88 27       	eor	r24, r24
    1c4a:	77 fd       	sbrc	r23, 7
    1c4c:	80 95       	com	r24
    1c4e:	98 2f       	mov	r25, r24
    1c50:	ae 01       	movw	r20, r28
    1c52:	40 53       	subi	r20, 0x30	; 48
    1c54:	24 2f       	mov	r18, r20
    1c56:	40 e2       	ldi	r20, 0x20	; 32
    1c58:	0e 94 a2 0b 	call	0x1744	; 0x1744 <mulacc>
    1c5c:	8b 01       	movw	r16, r22
    1c5e:	08 94       	sec
    1c60:	e1 08       	sbc	r14, r1
    1c62:	f1 08       	sbc	r15, r1
    1c64:	e1 14       	cp	r14, r1
    1c66:	f1 04       	cpc	r15, r1
    1c68:	39 f0       	breq	.+14     	; 0x1c78 <conv_flt+0x1e4>
    1c6a:	c3 01       	movw	r24, r6
    1c6c:	0e 94 1c 11 	call	0x2238	; 0x2238 <fgetc>
    1c70:	ec 01       	movw	r28, r24
    1c72:	c0 97       	sbiw	r24, 0x30	; 48
    1c74:	0a 97       	sbiw	r24, 0x0a	; 10
    1c76:	38 f3       	brcs	.-50     	; 0x1c46 <conv_flt+0x1b2>
    1c78:	b8 01       	movw	r22, r16
    1c7a:	54 fe       	sbrs	r5, 4
    1c7c:	03 c0       	rjmp	.+6      	; 0x1c84 <conv_flt+0x1f0>
    1c7e:	70 95       	com	r23
    1c80:	61 95       	neg	r22
    1c82:	7f 4f       	sbci	r23, 0xFF	; 255
    1c84:	c6 0e       	add	r12, r22
    1c86:	d7 1e       	adc	r13, r23
    1c88:	ef 28       	or	r14, r15
    1c8a:	31 f0       	breq	.+12     	; 0x1c98 <conv_flt+0x204>
    1c8c:	d7 fd       	sbrc	r29, 7
    1c8e:	04 c0       	rjmp	.+8      	; 0x1c98 <conv_flt+0x204>
    1c90:	ce 01       	movw	r24, r28
    1c92:	b3 01       	movw	r22, r6
    1c94:	0e 94 bf 11 	call	0x237e	; 0x237e <ungetc>
    1c98:	c5 01       	movw	r24, r10
    1c9a:	b4 01       	movw	r22, r8
    1c9c:	0e 94 d1 05 	call	0xba2	; 0xba2 <__floatunsisf>
    1ca0:	d7 fe       	sbrs	r13, 7
    1ca2:	0d c0       	rjmp	.+26     	; 0x1cbe <conv_flt+0x22a>
    1ca4:	a5 ec       	ldi	r26, 0xC5	; 197
    1ca6:	ea 2e       	mov	r14, r26
    1ca8:	a0 e0       	ldi	r26, 0x00	; 0
    1caa:	fa 2e       	mov	r15, r26
    1cac:	d0 94       	com	r13
    1cae:	c1 94       	neg	r12
    1cb0:	d1 08       	sbc	r13, r1
    1cb2:	d3 94       	inc	r13
    1cb4:	c0 e2       	ldi	r28, 0x20	; 32
    1cb6:	d0 e0       	ldi	r29, 0x00	; 0
    1cb8:	00 e0       	ldi	r16, 0x00	; 0
    1cba:	10 e0       	ldi	r17, 0x00	; 0
    1cbc:	0e c0       	rjmp	.+28     	; 0x1cda <conv_flt+0x246>
    1cbe:	fd ed       	ldi	r31, 0xDD	; 221
    1cc0:	ef 2e       	mov	r14, r31
    1cc2:	f0 e0       	ldi	r31, 0x00	; 0
    1cc4:	ff 2e       	mov	r15, r31
    1cc6:	f6 cf       	rjmp	.-20     	; 0x1cb4 <conv_flt+0x220>
    1cc8:	f7 01       	movw	r30, r14
    1cca:	25 91       	lpm	r18, Z+
    1ccc:	35 91       	lpm	r19, Z+
    1cce:	45 91       	lpm	r20, Z+
    1cd0:	54 91       	lpm	r21, Z+
    1cd2:	0e 94 d7 04 	call	0x9ae	; 0x9ae <__mulsf3>
    1cd6:	cc 1a       	sub	r12, r28
    1cd8:	dd 0a       	sbc	r13, r29
    1cda:	cc 16       	cp	r12, r28
    1cdc:	dd 06       	cpc	r13, r29
    1cde:	a0 f7       	brcc	.-24     	; 0x1cc8 <conv_flt+0x234>
    1ce0:	d6 95       	lsr	r29
    1ce2:	c7 95       	ror	r28
    1ce4:	0f 5f       	subi	r16, 0xFF	; 255
    1ce6:	1f 4f       	sbci	r17, 0xFF	; 255
    1ce8:	06 30       	cpi	r16, 0x06	; 6
    1cea:	11 05       	cpc	r17, r1
    1cec:	29 f0       	breq	.+10     	; 0x1cf8 <conv_flt+0x264>
    1cee:	ec ef       	ldi	r30, 0xFC	; 252
    1cf0:	ff ef       	ldi	r31, 0xFF	; 255
    1cf2:	ee 0e       	add	r14, r30
    1cf4:	ff 1e       	adc	r15, r31
    1cf6:	f1 cf       	rjmp	.-30     	; 0x1cda <conv_flt+0x246>
    1cf8:	dc 01       	movw	r26, r24
    1cfa:	cb 01       	movw	r24, r22
    1cfc:	57 fc       	sbrc	r5, 7
    1cfe:	b0 58       	subi	r27, 0x80	; 128
    1d00:	21 14       	cp	r2, r1
    1d02:	31 04       	cpc	r3, r1
    1d04:	29 f0       	breq	.+10     	; 0x1d10 <conv_flt+0x27c>
    1d06:	f1 01       	movw	r30, r2
    1d08:	80 83       	st	Z, r24
    1d0a:	91 83       	std	Z+1, r25	; 0x01
    1d0c:	a2 83       	std	Z+2, r26	; 0x02
    1d0e:	b3 83       	std	Z+3, r27	; 0x03
    1d10:	81 e0       	ldi	r24, 0x01	; 1
    1d12:	01 c0       	rjmp	.+2      	; 0x1d16 <conv_flt+0x282>
    1d14:	80 e0       	ldi	r24, 0x00	; 0
    1d16:	df 91       	pop	r29
    1d18:	cf 91       	pop	r28
    1d1a:	1f 91       	pop	r17
    1d1c:	0f 91       	pop	r16
    1d1e:	ff 90       	pop	r15
    1d20:	ef 90       	pop	r14
    1d22:	df 90       	pop	r13
    1d24:	cf 90       	pop	r12
    1d26:	bf 90       	pop	r11
    1d28:	af 90       	pop	r10
    1d2a:	9f 90       	pop	r9
    1d2c:	8f 90       	pop	r8
    1d2e:	7f 90       	pop	r7
    1d30:	6f 90       	pop	r6
    1d32:	5f 90       	pop	r5
    1d34:	3f 90       	pop	r3
    1d36:	2f 90       	pop	r2
    1d38:	08 95       	ret

00001d3a <vfscanf>:
    1d3a:	5f 92       	push	r5
    1d3c:	6f 92       	push	r6
    1d3e:	7f 92       	push	r7
    1d40:	8f 92       	push	r8
    1d42:	9f 92       	push	r9
    1d44:	af 92       	push	r10
    1d46:	bf 92       	push	r11
    1d48:	cf 92       	push	r12
    1d4a:	df 92       	push	r13
    1d4c:	ef 92       	push	r14
    1d4e:	ff 92       	push	r15
    1d50:	0f 93       	push	r16
    1d52:	1f 93       	push	r17
    1d54:	cf 93       	push	r28
    1d56:	df 93       	push	r29
    1d58:	4c 01       	movw	r8, r24
    1d5a:	5b 01       	movw	r10, r22
    1d5c:	3a 01       	movw	r6, r20
    1d5e:	fc 01       	movw	r30, r24
    1d60:	17 82       	std	Z+7, r1	; 0x07
    1d62:	16 82       	std	Z+6, r1	; 0x06
    1d64:	55 24       	eor	r5, r5
    1d66:	04 c1       	rjmp	.+520    	; 0x1f70 <vfscanf+0x236>
    1d68:	81 2f       	mov	r24, r17
    1d6a:	90 e0       	ldi	r25, 0x00	; 0
    1d6c:	0e 94 eb 10 	call	0x21d6	; 0x21d6 <isspace>
    1d70:	89 2b       	or	r24, r25
    1d72:	21 f0       	breq	.+8      	; 0x1d7c <vfscanf+0x42>
    1d74:	c4 01       	movw	r24, r8
    1d76:	0e 94 d0 0b 	call	0x17a0	; 0x17a0 <skip_spaces>
    1d7a:	fa c0       	rjmp	.+500    	; 0x1f70 <vfscanf+0x236>
    1d7c:	15 32       	cpi	r17, 0x25	; 37
    1d7e:	49 f4       	brne	.+18     	; 0x1d92 <vfscanf+0x58>
    1d80:	f5 01       	movw	r30, r10
    1d82:	f3 fc       	sbrc	r15, 3
    1d84:	65 91       	lpm	r22, Z+
    1d86:	f3 fe       	sbrs	r15, 3
    1d88:	61 91       	ld	r22, Z+
    1d8a:	5f 01       	movw	r10, r30
    1d8c:	65 32       	cpi	r22, 0x25	; 37
    1d8e:	69 f4       	brne	.+26     	; 0x1daa <vfscanf+0x70>
    1d90:	15 e2       	ldi	r17, 0x25	; 37
    1d92:	c4 01       	movw	r24, r8
    1d94:	0e 94 1c 11 	call	0x2238	; 0x2238 <fgetc>
    1d98:	97 fd       	sbrc	r25, 7
    1d9a:	f6 c0       	rjmp	.+492    	; 0x1f88 <vfscanf+0x24e>
    1d9c:	18 17       	cp	r17, r24
    1d9e:	09 f4       	brne	.+2      	; 0x1da2 <vfscanf+0x68>
    1da0:	e7 c0       	rjmp	.+462    	; 0x1f70 <vfscanf+0x236>
    1da2:	b4 01       	movw	r22, r8
    1da4:	0e 94 bf 11 	call	0x237e	; 0x237e <ungetc>
    1da8:	f4 c0       	rjmp	.+488    	; 0x1f92 <vfscanf+0x258>
    1daa:	6a 32       	cpi	r22, 0x2A	; 42
    1dac:	19 f0       	breq	.+6      	; 0x1db4 <vfscanf+0x7a>
    1dae:	16 2f       	mov	r17, r22
    1db0:	00 e0       	ldi	r16, 0x00	; 0
    1db2:	06 c0       	rjmp	.+12     	; 0x1dc0 <vfscanf+0x86>
    1db4:	f3 fc       	sbrc	r15, 3
    1db6:	15 91       	lpm	r17, Z+
    1db8:	f3 fe       	sbrs	r15, 3
    1dba:	11 91       	ld	r17, Z+
    1dbc:	5f 01       	movw	r10, r30
    1dbe:	01 e0       	ldi	r16, 0x01	; 1
    1dc0:	cc 24       	eor	r12, r12
    1dc2:	dd 24       	eor	r13, r13
    1dc4:	0e c0       	rjmp	.+28     	; 0x1de2 <vfscanf+0xa8>
    1dc6:	02 60       	ori	r16, 0x02	; 2
    1dc8:	b6 01       	movw	r22, r12
    1dca:	80 e0       	ldi	r24, 0x00	; 0
    1dcc:	90 e0       	ldi	r25, 0x00	; 0
    1dce:	40 e2       	ldi	r20, 0x20	; 32
    1dd0:	0e 94 a2 0b 	call	0x1744	; 0x1744 <mulacc>
    1dd4:	6b 01       	movw	r12, r22
    1dd6:	f5 01       	movw	r30, r10
    1dd8:	f3 fc       	sbrc	r15, 3
    1dda:	15 91       	lpm	r17, Z+
    1ddc:	f3 fe       	sbrs	r15, 3
    1dde:	11 91       	ld	r17, Z+
    1de0:	5f 01       	movw	r10, r30
    1de2:	21 2f       	mov	r18, r17
    1de4:	20 53       	subi	r18, 0x30	; 48
    1de6:	2a 30       	cpi	r18, 0x0A	; 10
    1de8:	70 f3       	brcs	.-36     	; 0x1dc6 <vfscanf+0x8c>
    1dea:	01 fd       	sbrc	r16, 1
    1dec:	04 c0       	rjmp	.+8      	; 0x1df6 <vfscanf+0xbc>
    1dee:	cc 24       	eor	r12, r12
    1df0:	ca 94       	dec	r12
    1df2:	dc 2c       	mov	r13, r12
    1df4:	04 c0       	rjmp	.+8      	; 0x1dfe <vfscanf+0xc4>
    1df6:	c1 14       	cp	r12, r1
    1df8:	d1 04       	cpc	r13, r1
    1dfa:	09 f4       	brne	.+2      	; 0x1dfe <vfscanf+0xc4>
    1dfc:	ca c0       	rjmp	.+404    	; 0x1f92 <vfscanf+0x258>
    1dfe:	18 36       	cpi	r17, 0x68	; 104
    1e00:	21 f0       	breq	.+8      	; 0x1e0a <vfscanf+0xd0>
    1e02:	1c 36       	cpi	r17, 0x6C	; 108
    1e04:	99 f4       	brne	.+38     	; 0x1e2c <vfscanf+0xf2>
    1e06:	f5 01       	movw	r30, r10
    1e08:	0b c0       	rjmp	.+22     	; 0x1e20 <vfscanf+0xe6>
    1e0a:	f5 01       	movw	r30, r10
    1e0c:	f3 fc       	sbrc	r15, 3
    1e0e:	65 91       	lpm	r22, Z+
    1e10:	f3 fe       	sbrs	r15, 3
    1e12:	61 91       	ld	r22, Z+
    1e14:	68 36       	cpi	r22, 0x68	; 104
    1e16:	19 f0       	breq	.+6      	; 0x1e1e <vfscanf+0xe4>
    1e18:	5f 01       	movw	r10, r30
    1e1a:	16 2f       	mov	r17, r22
    1e1c:	07 c0       	rjmp	.+14     	; 0x1e2c <vfscanf+0xf2>
    1e1e:	08 60       	ori	r16, 0x08	; 8
    1e20:	04 60       	ori	r16, 0x04	; 4
    1e22:	f3 fc       	sbrc	r15, 3
    1e24:	15 91       	lpm	r17, Z+
    1e26:	f3 fe       	sbrs	r15, 3
    1e28:	11 91       	ld	r17, Z+
    1e2a:	5f 01       	movw	r10, r30
    1e2c:	11 23       	and	r17, r17
    1e2e:	09 f4       	brne	.+2      	; 0x1e32 <vfscanf+0xf8>
    1e30:	b0 c0       	rjmp	.+352    	; 0x1f92 <vfscanf+0x258>
    1e32:	84 e9       	ldi	r24, 0x94	; 148
    1e34:	90 e0       	ldi	r25, 0x00	; 0
    1e36:	61 2f       	mov	r22, r17
    1e38:	70 e0       	ldi	r23, 0x00	; 0
    1e3a:	0e 94 fb 10 	call	0x21f6	; 0x21f6 <strchr_P>
    1e3e:	89 2b       	or	r24, r25
    1e40:	09 f4       	brne	.+2      	; 0x1e44 <vfscanf+0x10a>
    1e42:	a7 c0       	rjmp	.+334    	; 0x1f92 <vfscanf+0x258>
    1e44:	80 2f       	mov	r24, r16
    1e46:	00 ff       	sbrs	r16, 0
    1e48:	03 c0       	rjmp	.+6      	; 0x1e50 <vfscanf+0x116>
    1e4a:	ee 24       	eor	r14, r14
    1e4c:	ff 24       	eor	r15, r15
    1e4e:	07 c0       	rjmp	.+14     	; 0x1e5e <vfscanf+0x124>
    1e50:	f3 01       	movw	r30, r6
    1e52:	e0 80       	ld	r14, Z
    1e54:	f1 80       	ldd	r15, Z+1	; 0x01
    1e56:	22 e0       	ldi	r18, 0x02	; 2
    1e58:	30 e0       	ldi	r19, 0x00	; 0
    1e5a:	62 0e       	add	r6, r18
    1e5c:	73 1e       	adc	r7, r19
    1e5e:	1e 36       	cpi	r17, 0x6E	; 110
    1e60:	51 f4       	brne	.+20     	; 0x1e76 <vfscanf+0x13c>
    1e62:	f4 01       	movw	r30, r8
    1e64:	46 81       	ldd	r20, Z+6	; 0x06
    1e66:	57 81       	ldd	r21, Z+7	; 0x07
    1e68:	60 e0       	ldi	r22, 0x00	; 0
    1e6a:	70 e0       	ldi	r23, 0x00	; 0
    1e6c:	c7 01       	movw	r24, r14
    1e6e:	20 2f       	mov	r18, r16
    1e70:	0e 94 96 0b 	call	0x172c	; 0x172c <putval>
    1e74:	7d c0       	rjmp	.+250    	; 0x1f70 <vfscanf+0x236>
    1e76:	13 36       	cpi	r17, 0x63	; 99
    1e78:	b9 f4       	brne	.+46     	; 0x1ea8 <vfscanf+0x16e>
    1e7a:	81 fd       	sbrc	r24, 1
    1e7c:	03 c0       	rjmp	.+6      	; 0x1e84 <vfscanf+0x14a>
    1e7e:	11 e0       	ldi	r17, 0x01	; 1
    1e80:	c1 2e       	mov	r12, r17
    1e82:	d1 2c       	mov	r13, r1
    1e84:	c4 01       	movw	r24, r8
    1e86:	0e 94 1c 11 	call	0x2238	; 0x2238 <fgetc>
    1e8a:	97 fd       	sbrc	r25, 7
    1e8c:	7d c0       	rjmp	.+250    	; 0x1f88 <vfscanf+0x24e>
    1e8e:	e1 14       	cp	r14, r1
    1e90:	f1 04       	cpc	r15, r1
    1e92:	19 f0       	breq	.+6      	; 0x1e9a <vfscanf+0x160>
    1e94:	f7 01       	movw	r30, r14
    1e96:	81 93       	st	Z+, r24
    1e98:	7f 01       	movw	r14, r30
    1e9a:	08 94       	sec
    1e9c:	c1 08       	sbc	r12, r1
    1e9e:	d1 08       	sbc	r13, r1
    1ea0:	c1 14       	cp	r12, r1
    1ea2:	d1 04       	cpc	r13, r1
    1ea4:	79 f7       	brne	.-34     	; 0x1e84 <vfscanf+0x14a>
    1ea6:	62 c0       	rjmp	.+196    	; 0x1f6c <vfscanf+0x232>
    1ea8:	1b 35       	cpi	r17, 0x5B	; 91
    1eaa:	59 f4       	brne	.+22     	; 0x1ec2 <vfscanf+0x188>
    1eac:	c4 01       	movw	r24, r8
    1eae:	b6 01       	movw	r22, r12
    1eb0:	a7 01       	movw	r20, r14
    1eb2:	95 01       	movw	r18, r10
    1eb4:	0e 94 7d 0c 	call	0x18fa	; 0x18fa <conv_brk>
    1eb8:	5c 01       	movw	r10, r24
    1eba:	00 97       	sbiw	r24, 0x00	; 0
    1ebc:	09 f0       	breq	.+2      	; 0x1ec0 <vfscanf+0x186>
    1ebe:	56 c0       	rjmp	.+172    	; 0x1f6c <vfscanf+0x232>
    1ec0:	50 c0       	rjmp	.+160    	; 0x1f62 <vfscanf+0x228>
    1ec2:	c4 01       	movw	r24, r8
    1ec4:	0e 94 d0 0b 	call	0x17a0	; 0x17a0 <skip_spaces>
    1ec8:	97 fd       	sbrc	r25, 7
    1eca:	5e c0       	rjmp	.+188    	; 0x1f88 <vfscanf+0x24e>
    1ecc:	1f 36       	cpi	r17, 0x6F	; 111
    1ece:	d1 f1       	breq	.+116    	; 0x1f44 <vfscanf+0x20a>
    1ed0:	10 37       	cpi	r17, 0x70	; 112
    1ed2:	38 f4       	brcc	.+14     	; 0x1ee2 <vfscanf+0x1a8>
    1ed4:	14 36       	cpi	r17, 0x64	; 100
    1ed6:	a1 f1       	breq	.+104    	; 0x1f40 <vfscanf+0x206>
    1ed8:	19 36       	cpi	r17, 0x69	; 105
    1eda:	a9 f1       	breq	.+106    	; 0x1f46 <vfscanf+0x20c>
    1edc:	18 35       	cpi	r17, 0x58	; 88
    1ede:	d1 f5       	brne	.+116    	; 0x1f54 <vfscanf+0x21a>
    1ee0:	2d c0       	rjmp	.+90     	; 0x1f3c <vfscanf+0x202>
    1ee2:	13 37       	cpi	r17, 0x73	; 115
    1ee4:	51 f0       	breq	.+20     	; 0x1efa <vfscanf+0x1c0>
    1ee6:	14 37       	cpi	r17, 0x74	; 116
    1ee8:	18 f4       	brcc	.+6      	; 0x1ef0 <vfscanf+0x1b6>
    1eea:	10 37       	cpi	r17, 0x70	; 112
    1eec:	99 f5       	brne	.+102    	; 0x1f54 <vfscanf+0x21a>
    1eee:	26 c0       	rjmp	.+76     	; 0x1f3c <vfscanf+0x202>
    1ef0:	15 37       	cpi	r17, 0x75	; 117
    1ef2:	31 f1       	breq	.+76     	; 0x1f40 <vfscanf+0x206>
    1ef4:	18 37       	cpi	r17, 0x78	; 120
    1ef6:	71 f5       	brne	.+92     	; 0x1f54 <vfscanf+0x21a>
    1ef8:	21 c0       	rjmp	.+66     	; 0x1f3c <vfscanf+0x202>
    1efa:	c4 01       	movw	r24, r8
    1efc:	0e 94 1c 11 	call	0x2238	; 0x2238 <fgetc>
    1f00:	ec 01       	movw	r28, r24
    1f02:	97 fd       	sbrc	r25, 7
    1f04:	15 c0       	rjmp	.+42     	; 0x1f30 <vfscanf+0x1f6>
    1f06:	0e 94 eb 10 	call	0x21d6	; 0x21d6 <isspace>
    1f0a:	89 2b       	or	r24, r25
    1f0c:	29 f0       	breq	.+10     	; 0x1f18 <vfscanf+0x1de>
    1f0e:	ce 01       	movw	r24, r28
    1f10:	b4 01       	movw	r22, r8
    1f12:	0e 94 bf 11 	call	0x237e	; 0x237e <ungetc>
    1f16:	0c c0       	rjmp	.+24     	; 0x1f30 <vfscanf+0x1f6>
    1f18:	e1 14       	cp	r14, r1
    1f1a:	f1 04       	cpc	r15, r1
    1f1c:	19 f0       	breq	.+6      	; 0x1f24 <vfscanf+0x1ea>
    1f1e:	f7 01       	movw	r30, r14
    1f20:	c1 93       	st	Z+, r28
    1f22:	7f 01       	movw	r14, r30
    1f24:	08 94       	sec
    1f26:	c1 08       	sbc	r12, r1
    1f28:	d1 08       	sbc	r13, r1
    1f2a:	c1 14       	cp	r12, r1
    1f2c:	d1 04       	cpc	r13, r1
    1f2e:	29 f7       	brne	.-54     	; 0x1efa <vfscanf+0x1c0>
    1f30:	e1 14       	cp	r14, r1
    1f32:	f1 04       	cpc	r15, r1
    1f34:	d9 f0       	breq	.+54     	; 0x1f6c <vfscanf+0x232>
    1f36:	f7 01       	movw	r30, r14
    1f38:	10 82       	st	Z, r1
    1f3a:	18 c0       	rjmp	.+48     	; 0x1f6c <vfscanf+0x232>
    1f3c:	00 64       	ori	r16, 0x40	; 64
    1f3e:	03 c0       	rjmp	.+6      	; 0x1f46 <vfscanf+0x20c>
    1f40:	00 62       	ori	r16, 0x20	; 32
    1f42:	01 c0       	rjmp	.+2      	; 0x1f46 <vfscanf+0x20c>
    1f44:	00 61       	ori	r16, 0x10	; 16
    1f46:	c4 01       	movw	r24, r8
    1f48:	b6 01       	movw	r22, r12
    1f4a:	a7 01       	movw	r20, r14
    1f4c:	20 2f       	mov	r18, r16
    1f4e:	0e 94 e9 0b 	call	0x17d2	; 0x17d2 <conv_int>
    1f52:	05 c0       	rjmp	.+10     	; 0x1f5e <vfscanf+0x224>
    1f54:	c4 01       	movw	r24, r8
    1f56:	b6 01       	movw	r22, r12
    1f58:	a7 01       	movw	r20, r14
    1f5a:	0e 94 4a 0d 	call	0x1a94	; 0x1a94 <conv_flt>
    1f5e:	88 23       	and	r24, r24
    1f60:	29 f4       	brne	.+10     	; 0x1f6c <vfscanf+0x232>
    1f62:	f4 01       	movw	r30, r8
    1f64:	83 81       	ldd	r24, Z+3	; 0x03
    1f66:	80 73       	andi	r24, 0x30	; 48
    1f68:	79 f4       	brne	.+30     	; 0x1f88 <vfscanf+0x24e>
    1f6a:	13 c0       	rjmp	.+38     	; 0x1f92 <vfscanf+0x258>
    1f6c:	00 ff       	sbrs	r16, 0
    1f6e:	53 94       	inc	r5
    1f70:	f4 01       	movw	r30, r8
    1f72:	f3 80       	ldd	r15, Z+3	; 0x03
    1f74:	f5 01       	movw	r30, r10
    1f76:	f3 fc       	sbrc	r15, 3
    1f78:	15 91       	lpm	r17, Z+
    1f7a:	f3 fe       	sbrs	r15, 3
    1f7c:	11 91       	ld	r17, Z+
    1f7e:	5f 01       	movw	r10, r30
    1f80:	11 23       	and	r17, r17
    1f82:	09 f0       	breq	.+2      	; 0x1f86 <vfscanf+0x24c>
    1f84:	f1 ce       	rjmp	.-542    	; 0x1d68 <vfscanf+0x2e>
    1f86:	05 c0       	rjmp	.+10     	; 0x1f92 <vfscanf+0x258>
    1f88:	55 20       	and	r5, r5
    1f8a:	19 f4       	brne	.+6      	; 0x1f92 <vfscanf+0x258>
    1f8c:	2f ef       	ldi	r18, 0xFF	; 255
    1f8e:	3f ef       	ldi	r19, 0xFF	; 255
    1f90:	02 c0       	rjmp	.+4      	; 0x1f96 <vfscanf+0x25c>
    1f92:	25 2d       	mov	r18, r5
    1f94:	30 e0       	ldi	r19, 0x00	; 0
    1f96:	c9 01       	movw	r24, r18
    1f98:	df 91       	pop	r29
    1f9a:	cf 91       	pop	r28
    1f9c:	1f 91       	pop	r17
    1f9e:	0f 91       	pop	r16
    1fa0:	ff 90       	pop	r15
    1fa2:	ef 90       	pop	r14
    1fa4:	df 90       	pop	r13
    1fa6:	cf 90       	pop	r12
    1fa8:	bf 90       	pop	r11
    1faa:	af 90       	pop	r10
    1fac:	9f 90       	pop	r9
    1fae:	8f 90       	pop	r8
    1fb0:	7f 90       	pop	r7
    1fb2:	6f 90       	pop	r6
    1fb4:	5f 90       	pop	r5
    1fb6:	08 95       	ret

00001fb8 <__prologue_saves__>:
    1fb8:	2f 92       	push	r2
    1fba:	3f 92       	push	r3
    1fbc:	4f 92       	push	r4
    1fbe:	5f 92       	push	r5
    1fc0:	6f 92       	push	r6
    1fc2:	7f 92       	push	r7
    1fc4:	8f 92       	push	r8
    1fc6:	9f 92       	push	r9
    1fc8:	af 92       	push	r10
    1fca:	bf 92       	push	r11
    1fcc:	cf 92       	push	r12
    1fce:	df 92       	push	r13
    1fd0:	ef 92       	push	r14
    1fd2:	ff 92       	push	r15
    1fd4:	0f 93       	push	r16
    1fd6:	1f 93       	push	r17
    1fd8:	cf 93       	push	r28
    1fda:	df 93       	push	r29
    1fdc:	cd b7       	in	r28, 0x3d	; 61
    1fde:	de b7       	in	r29, 0x3e	; 62
    1fe0:	ca 1b       	sub	r28, r26
    1fe2:	db 0b       	sbc	r29, r27
    1fe4:	0f b6       	in	r0, 0x3f	; 63
    1fe6:	f8 94       	cli
    1fe8:	de bf       	out	0x3e, r29	; 62
    1fea:	0f be       	out	0x3f, r0	; 63
    1fec:	cd bf       	out	0x3d, r28	; 61
    1fee:	09 94       	ijmp

00001ff0 <__epilogue_restores__>:
    1ff0:	2a 88       	ldd	r2, Y+18	; 0x12
    1ff2:	39 88       	ldd	r3, Y+17	; 0x11
    1ff4:	48 88       	ldd	r4, Y+16	; 0x10
    1ff6:	5f 84       	ldd	r5, Y+15	; 0x0f
    1ff8:	6e 84       	ldd	r6, Y+14	; 0x0e
    1ffa:	7d 84       	ldd	r7, Y+13	; 0x0d
    1ffc:	8c 84       	ldd	r8, Y+12	; 0x0c
    1ffe:	9b 84       	ldd	r9, Y+11	; 0x0b
    2000:	aa 84       	ldd	r10, Y+10	; 0x0a
    2002:	b9 84       	ldd	r11, Y+9	; 0x09
    2004:	c8 84       	ldd	r12, Y+8	; 0x08
    2006:	df 80       	ldd	r13, Y+7	; 0x07
    2008:	ee 80       	ldd	r14, Y+6	; 0x06
    200a:	fd 80       	ldd	r15, Y+5	; 0x05
    200c:	0c 81       	ldd	r16, Y+4	; 0x04
    200e:	1b 81       	ldd	r17, Y+3	; 0x03
    2010:	aa 81       	ldd	r26, Y+2	; 0x02
    2012:	b9 81       	ldd	r27, Y+1	; 0x01
    2014:	ce 0f       	add	r28, r30
    2016:	d1 1d       	adc	r29, r1
    2018:	0f b6       	in	r0, 0x3f	; 63
    201a:	f8 94       	cli
    201c:	de bf       	out	0x3e, r29	; 62
    201e:	0f be       	out	0x3f, r0	; 63
    2020:	cd bf       	out	0x3d, r28	; 61
    2022:	ed 01       	movw	r28, r26
    2024:	08 95       	ret

00002026 <__ftoa_engine>:
    2026:	28 30       	cpi	r18, 0x08	; 8
    2028:	08 f0       	brcs	.+2      	; 0x202c <__ftoa_engine+0x6>
    202a:	27 e0       	ldi	r18, 0x07	; 7
    202c:	33 27       	eor	r19, r19
    202e:	da 01       	movw	r26, r20
    2030:	99 0f       	add	r25, r25
    2032:	31 1d       	adc	r19, r1
    2034:	87 fd       	sbrc	r24, 7
    2036:	91 60       	ori	r25, 0x01	; 1
    2038:	00 96       	adiw	r24, 0x00	; 0
    203a:	61 05       	cpc	r22, r1
    203c:	71 05       	cpc	r23, r1
    203e:	39 f4       	brne	.+14     	; 0x204e <__ftoa_engine+0x28>
    2040:	32 60       	ori	r19, 0x02	; 2
    2042:	2e 5f       	subi	r18, 0xFE	; 254
    2044:	3d 93       	st	X+, r19
    2046:	30 e3       	ldi	r19, 0x30	; 48
    2048:	2a 95       	dec	r18
    204a:	e1 f7       	brne	.-8      	; 0x2044 <__ftoa_engine+0x1e>
    204c:	08 95       	ret
    204e:	9f 3f       	cpi	r25, 0xFF	; 255
    2050:	30 f0       	brcs	.+12     	; 0x205e <__ftoa_engine+0x38>
    2052:	80 38       	cpi	r24, 0x80	; 128
    2054:	71 05       	cpc	r23, r1
    2056:	61 05       	cpc	r22, r1
    2058:	09 f0       	breq	.+2      	; 0x205c <__ftoa_engine+0x36>
    205a:	3c 5f       	subi	r19, 0xFC	; 252
    205c:	3c 5f       	subi	r19, 0xFC	; 252
    205e:	3d 93       	st	X+, r19
    2060:	91 30       	cpi	r25, 0x01	; 1
    2062:	08 f0       	brcs	.+2      	; 0x2066 <__ftoa_engine+0x40>
    2064:	80 68       	ori	r24, 0x80	; 128
    2066:	91 1d       	adc	r25, r1
    2068:	df 93       	push	r29
    206a:	cf 93       	push	r28
    206c:	1f 93       	push	r17
    206e:	0f 93       	push	r16
    2070:	ff 92       	push	r15
    2072:	ef 92       	push	r14
    2074:	19 2f       	mov	r17, r25
    2076:	98 7f       	andi	r25, 0xF8	; 248
    2078:	96 95       	lsr	r25
    207a:	e9 2f       	mov	r30, r25
    207c:	96 95       	lsr	r25
    207e:	96 95       	lsr	r25
    2080:	e9 0f       	add	r30, r25
    2082:	ff 27       	eor	r31, r31
    2084:	e5 5c       	subi	r30, 0xC5	; 197
    2086:	fe 4f       	sbci	r31, 0xFE	; 254
    2088:	99 27       	eor	r25, r25
    208a:	33 27       	eor	r19, r19
    208c:	ee 24       	eor	r14, r14
    208e:	ff 24       	eor	r15, r15
    2090:	a7 01       	movw	r20, r14
    2092:	e7 01       	movw	r28, r14
    2094:	05 90       	lpm	r0, Z+
    2096:	08 94       	sec
    2098:	07 94       	ror	r0
    209a:	28 f4       	brcc	.+10     	; 0x20a6 <__ftoa_engine+0x80>
    209c:	36 0f       	add	r19, r22
    209e:	e7 1e       	adc	r14, r23
    20a0:	f8 1e       	adc	r15, r24
    20a2:	49 1f       	adc	r20, r25
    20a4:	51 1d       	adc	r21, r1
    20a6:	66 0f       	add	r22, r22
    20a8:	77 1f       	adc	r23, r23
    20aa:	88 1f       	adc	r24, r24
    20ac:	99 1f       	adc	r25, r25
    20ae:	06 94       	lsr	r0
    20b0:	a1 f7       	brne	.-24     	; 0x209a <__ftoa_engine+0x74>
    20b2:	05 90       	lpm	r0, Z+
    20b4:	07 94       	ror	r0
    20b6:	28 f4       	brcc	.+10     	; 0x20c2 <__ftoa_engine+0x9c>
    20b8:	e7 0e       	add	r14, r23
    20ba:	f8 1e       	adc	r15, r24
    20bc:	49 1f       	adc	r20, r25
    20be:	56 1f       	adc	r21, r22
    20c0:	c1 1d       	adc	r28, r1
    20c2:	77 0f       	add	r23, r23
    20c4:	88 1f       	adc	r24, r24
    20c6:	99 1f       	adc	r25, r25
    20c8:	66 1f       	adc	r22, r22
    20ca:	06 94       	lsr	r0
    20cc:	a1 f7       	brne	.-24     	; 0x20b6 <__ftoa_engine+0x90>
    20ce:	05 90       	lpm	r0, Z+
    20d0:	07 94       	ror	r0
    20d2:	28 f4       	brcc	.+10     	; 0x20de <__ftoa_engine+0xb8>
    20d4:	f8 0e       	add	r15, r24
    20d6:	49 1f       	adc	r20, r25
    20d8:	56 1f       	adc	r21, r22
    20da:	c7 1f       	adc	r28, r23
    20dc:	d1 1d       	adc	r29, r1
    20de:	88 0f       	add	r24, r24
    20e0:	99 1f       	adc	r25, r25
    20e2:	66 1f       	adc	r22, r22
    20e4:	77 1f       	adc	r23, r23
    20e6:	06 94       	lsr	r0
    20e8:	a1 f7       	brne	.-24     	; 0x20d2 <__ftoa_engine+0xac>
    20ea:	05 90       	lpm	r0, Z+
    20ec:	07 94       	ror	r0
    20ee:	20 f4       	brcc	.+8      	; 0x20f8 <__ftoa_engine+0xd2>
    20f0:	49 0f       	add	r20, r25
    20f2:	56 1f       	adc	r21, r22
    20f4:	c7 1f       	adc	r28, r23
    20f6:	d8 1f       	adc	r29, r24
    20f8:	99 0f       	add	r25, r25
    20fa:	66 1f       	adc	r22, r22
    20fc:	77 1f       	adc	r23, r23
    20fe:	88 1f       	adc	r24, r24
    2100:	06 94       	lsr	r0
    2102:	a9 f7       	brne	.-22     	; 0x20ee <__ftoa_engine+0xc8>
    2104:	84 91       	lpm	r24, Z+
    2106:	10 95       	com	r17
    2108:	17 70       	andi	r17, 0x07	; 7
    210a:	41 f0       	breq	.+16     	; 0x211c <__ftoa_engine+0xf6>
    210c:	d6 95       	lsr	r29
    210e:	c7 95       	ror	r28
    2110:	57 95       	ror	r21
    2112:	47 95       	ror	r20
    2114:	f7 94       	ror	r15
    2116:	e7 94       	ror	r14
    2118:	1a 95       	dec	r17
    211a:	c1 f7       	brne	.-16     	; 0x210c <__ftoa_engine+0xe6>
    211c:	e1 ee       	ldi	r30, 0xE1	; 225
    211e:	f0 e0       	ldi	r31, 0x00	; 0
    2120:	68 94       	set
    2122:	15 90       	lpm	r1, Z+
    2124:	15 91       	lpm	r17, Z+
    2126:	35 91       	lpm	r19, Z+
    2128:	65 91       	lpm	r22, Z+
    212a:	95 91       	lpm	r25, Z+
    212c:	05 90       	lpm	r0, Z+
    212e:	7f e2       	ldi	r23, 0x2F	; 47
    2130:	73 95       	inc	r23
    2132:	e1 18       	sub	r14, r1
    2134:	f1 0a       	sbc	r15, r17
    2136:	43 0b       	sbc	r20, r19
    2138:	56 0b       	sbc	r21, r22
    213a:	c9 0b       	sbc	r28, r25
    213c:	d0 09       	sbc	r29, r0
    213e:	c0 f7       	brcc	.-16     	; 0x2130 <__ftoa_engine+0x10a>
    2140:	e1 0c       	add	r14, r1
    2142:	f1 1e       	adc	r15, r17
    2144:	43 1f       	adc	r20, r19
    2146:	56 1f       	adc	r21, r22
    2148:	c9 1f       	adc	r28, r25
    214a:	d0 1d       	adc	r29, r0
    214c:	7e f4       	brtc	.+30     	; 0x216c <__ftoa_engine+0x146>
    214e:	70 33       	cpi	r23, 0x30	; 48
    2150:	11 f4       	brne	.+4      	; 0x2156 <__ftoa_engine+0x130>
    2152:	8a 95       	dec	r24
    2154:	e6 cf       	rjmp	.-52     	; 0x2122 <__ftoa_engine+0xfc>
    2156:	e8 94       	clt
    2158:	01 50       	subi	r16, 0x01	; 1
    215a:	30 f0       	brcs	.+12     	; 0x2168 <__ftoa_engine+0x142>
    215c:	08 0f       	add	r16, r24
    215e:	0a f4       	brpl	.+2      	; 0x2162 <__ftoa_engine+0x13c>
    2160:	00 27       	eor	r16, r16
    2162:	02 17       	cp	r16, r18
    2164:	08 f4       	brcc	.+2      	; 0x2168 <__ftoa_engine+0x142>
    2166:	20 2f       	mov	r18, r16
    2168:	23 95       	inc	r18
    216a:	02 2f       	mov	r16, r18
    216c:	7a 33       	cpi	r23, 0x3A	; 58
    216e:	28 f0       	brcs	.+10     	; 0x217a <__ftoa_engine+0x154>
    2170:	79 e3       	ldi	r23, 0x39	; 57
    2172:	7d 93       	st	X+, r23
    2174:	2a 95       	dec	r18
    2176:	e9 f7       	brne	.-6      	; 0x2172 <__ftoa_engine+0x14c>
    2178:	10 c0       	rjmp	.+32     	; 0x219a <__ftoa_engine+0x174>
    217a:	7d 93       	st	X+, r23
    217c:	2a 95       	dec	r18
    217e:	89 f6       	brne	.-94     	; 0x2122 <__ftoa_engine+0xfc>
    2180:	06 94       	lsr	r0
    2182:	97 95       	ror	r25
    2184:	67 95       	ror	r22
    2186:	37 95       	ror	r19
    2188:	17 95       	ror	r17
    218a:	17 94       	ror	r1
    218c:	e1 18       	sub	r14, r1
    218e:	f1 0a       	sbc	r15, r17
    2190:	43 0b       	sbc	r20, r19
    2192:	56 0b       	sbc	r21, r22
    2194:	c9 0b       	sbc	r28, r25
    2196:	d0 09       	sbc	r29, r0
    2198:	98 f0       	brcs	.+38     	; 0x21c0 <__ftoa_engine+0x19a>
    219a:	23 95       	inc	r18
    219c:	7e 91       	ld	r23, -X
    219e:	73 95       	inc	r23
    21a0:	7a 33       	cpi	r23, 0x3A	; 58
    21a2:	08 f0       	brcs	.+2      	; 0x21a6 <__ftoa_engine+0x180>
    21a4:	70 e3       	ldi	r23, 0x30	; 48
    21a6:	7c 93       	st	X, r23
    21a8:	20 13       	cpse	r18, r16
    21aa:	b8 f7       	brcc	.-18     	; 0x219a <__ftoa_engine+0x174>
    21ac:	7e 91       	ld	r23, -X
    21ae:	70 61       	ori	r23, 0x10	; 16
    21b0:	7d 93       	st	X+, r23
    21b2:	30 f0       	brcs	.+12     	; 0x21c0 <__ftoa_engine+0x19a>
    21b4:	83 95       	inc	r24
    21b6:	71 e3       	ldi	r23, 0x31	; 49
    21b8:	7d 93       	st	X+, r23
    21ba:	70 e3       	ldi	r23, 0x30	; 48
    21bc:	2a 95       	dec	r18
    21be:	e1 f7       	brne	.-8      	; 0x21b8 <__ftoa_engine+0x192>
    21c0:	11 24       	eor	r1, r1
    21c2:	ef 90       	pop	r14
    21c4:	ff 90       	pop	r15
    21c6:	0f 91       	pop	r16
    21c8:	1f 91       	pop	r17
    21ca:	cf 91       	pop	r28
    21cc:	df 91       	pop	r29
    21ce:	99 27       	eor	r25, r25
    21d0:	87 fd       	sbrc	r24, 7
    21d2:	90 95       	com	r25
    21d4:	08 95       	ret

000021d6 <isspace>:
    21d6:	91 11       	cpse	r25, r1
    21d8:	4a c1       	rjmp	.+660    	; 0x246e <__ctype_isfalse>
    21da:	80 32       	cpi	r24, 0x20	; 32
    21dc:	19 f0       	breq	.+6      	; 0x21e4 <isspace+0xe>
    21de:	89 50       	subi	r24, 0x09	; 9
    21e0:	85 50       	subi	r24, 0x05	; 5
    21e2:	d0 f7       	brcc	.-12     	; 0x21d8 <isspace+0x2>
    21e4:	08 95       	ret

000021e6 <tolower>:
    21e6:	91 11       	cpse	r25, r1
    21e8:	08 95       	ret
    21ea:	81 54       	subi	r24, 0x41	; 65
    21ec:	8a 51       	subi	r24, 0x1A	; 26
    21ee:	08 f4       	brcc	.+2      	; 0x21f2 <tolower+0xc>
    21f0:	80 5e       	subi	r24, 0xE0	; 224
    21f2:	85 5a       	subi	r24, 0xA5	; 165
    21f4:	08 95       	ret

000021f6 <strchr_P>:
    21f6:	fc 01       	movw	r30, r24
    21f8:	05 90       	lpm	r0, Z+
    21fa:	06 16       	cp	r0, r22
    21fc:	21 f0       	breq	.+8      	; 0x2206 <strchr_P+0x10>
    21fe:	00 20       	and	r0, r0
    2200:	d9 f7       	brne	.-10     	; 0x21f8 <strchr_P+0x2>
    2202:	c0 01       	movw	r24, r0
    2204:	08 95       	ret
    2206:	31 97       	sbiw	r30, 0x01	; 1
    2208:	cf 01       	movw	r24, r30
    220a:	08 95       	ret

0000220c <strnlen_P>:
    220c:	fc 01       	movw	r30, r24
    220e:	05 90       	lpm	r0, Z+
    2210:	61 50       	subi	r22, 0x01	; 1
    2212:	70 40       	sbci	r23, 0x00	; 0
    2214:	01 10       	cpse	r0, r1
    2216:	d8 f7       	brcc	.-10     	; 0x220e <strnlen_P+0x2>
    2218:	80 95       	com	r24
    221a:	90 95       	com	r25
    221c:	8e 0f       	add	r24, r30
    221e:	9f 1f       	adc	r25, r31
    2220:	08 95       	ret

00002222 <strnlen>:
    2222:	fc 01       	movw	r30, r24
    2224:	61 50       	subi	r22, 0x01	; 1
    2226:	70 40       	sbci	r23, 0x00	; 0
    2228:	01 90       	ld	r0, Z+
    222a:	01 10       	cpse	r0, r1
    222c:	d8 f7       	brcc	.-10     	; 0x2224 <strnlen+0x2>
    222e:	80 95       	com	r24
    2230:	90 95       	com	r25
    2232:	8e 0f       	add	r24, r30
    2234:	9f 1f       	adc	r25, r31
    2236:	08 95       	ret

00002238 <fgetc>:
    2238:	cf 93       	push	r28
    223a:	df 93       	push	r29
    223c:	ec 01       	movw	r28, r24
    223e:	4b 81       	ldd	r20, Y+3	; 0x03
    2240:	40 ff       	sbrs	r20, 0
    2242:	1a c0       	rjmp	.+52     	; 0x2278 <fgetc+0x40>
    2244:	46 ff       	sbrs	r20, 6
    2246:	0a c0       	rjmp	.+20     	; 0x225c <fgetc+0x24>
    2248:	4f 7b       	andi	r20, 0xBF	; 191
    224a:	4b 83       	std	Y+3, r20	; 0x03
    224c:	8e 81       	ldd	r24, Y+6	; 0x06
    224e:	9f 81       	ldd	r25, Y+7	; 0x07
    2250:	01 96       	adiw	r24, 0x01	; 1
    2252:	9f 83       	std	Y+7, r25	; 0x07
    2254:	8e 83       	std	Y+6, r24	; 0x06
    2256:	8a 81       	ldd	r24, Y+2	; 0x02
    2258:	28 2f       	mov	r18, r24
    225a:	2b c0       	rjmp	.+86     	; 0x22b2 <fgetc+0x7a>
    225c:	42 ff       	sbrs	r20, 2
    225e:	13 c0       	rjmp	.+38     	; 0x2286 <fgetc+0x4e>
    2260:	e8 81       	ld	r30, Y
    2262:	f9 81       	ldd	r31, Y+1	; 0x01
    2264:	80 81       	ld	r24, Z
    2266:	28 2f       	mov	r18, r24
    2268:	33 27       	eor	r19, r19
    226a:	27 fd       	sbrc	r18, 7
    226c:	30 95       	com	r19
    226e:	21 15       	cp	r18, r1
    2270:	31 05       	cpc	r19, r1
    2272:	29 f4       	brne	.+10     	; 0x227e <fgetc+0x46>
    2274:	40 62       	ori	r20, 0x20	; 32
    2276:	4b 83       	std	Y+3, r20	; 0x03
    2278:	2f ef       	ldi	r18, 0xFF	; 255
    227a:	3f ef       	ldi	r19, 0xFF	; 255
    227c:	1b c0       	rjmp	.+54     	; 0x22b4 <fgetc+0x7c>
    227e:	31 96       	adiw	r30, 0x01	; 1
    2280:	f9 83       	std	Y+1, r31	; 0x01
    2282:	e8 83       	st	Y, r30
    2284:	11 c0       	rjmp	.+34     	; 0x22a8 <fgetc+0x70>
    2286:	ea 85       	ldd	r30, Y+10	; 0x0a
    2288:	fb 85       	ldd	r31, Y+11	; 0x0b
    228a:	ce 01       	movw	r24, r28
    228c:	09 95       	icall
    228e:	9c 01       	movw	r18, r24
    2290:	97 ff       	sbrs	r25, 7
    2292:	0a c0       	rjmp	.+20     	; 0x22a8 <fgetc+0x70>
    2294:	9b 81       	ldd	r25, Y+3	; 0x03
    2296:	2f 5f       	subi	r18, 0xFF	; 255
    2298:	3f 4f       	sbci	r19, 0xFF	; 255
    229a:	11 f0       	breq	.+4      	; 0x22a0 <fgetc+0x68>
    229c:	80 e2       	ldi	r24, 0x20	; 32
    229e:	01 c0       	rjmp	.+2      	; 0x22a2 <fgetc+0x6a>
    22a0:	80 e1       	ldi	r24, 0x10	; 16
    22a2:	89 2b       	or	r24, r25
    22a4:	8b 83       	std	Y+3, r24	; 0x03
    22a6:	e8 cf       	rjmp	.-48     	; 0x2278 <fgetc+0x40>
    22a8:	8e 81       	ldd	r24, Y+6	; 0x06
    22aa:	9f 81       	ldd	r25, Y+7	; 0x07
    22ac:	01 96       	adiw	r24, 0x01	; 1
    22ae:	9f 83       	std	Y+7, r25	; 0x07
    22b0:	8e 83       	std	Y+6, r24	; 0x06
    22b2:	30 e0       	ldi	r19, 0x00	; 0
    22b4:	c9 01       	movw	r24, r18
    22b6:	df 91       	pop	r29
    22b8:	cf 91       	pop	r28
    22ba:	08 95       	ret

000022bc <fputc>:
    22bc:	0f 93       	push	r16
    22be:	1f 93       	push	r17
    22c0:	cf 93       	push	r28
    22c2:	df 93       	push	r29
    22c4:	8c 01       	movw	r16, r24
    22c6:	eb 01       	movw	r28, r22
    22c8:	8b 81       	ldd	r24, Y+3	; 0x03
    22ca:	81 ff       	sbrs	r24, 1
    22cc:	1b c0       	rjmp	.+54     	; 0x2304 <fputc+0x48>
    22ce:	82 ff       	sbrs	r24, 2
    22d0:	0d c0       	rjmp	.+26     	; 0x22ec <fputc+0x30>
    22d2:	2e 81       	ldd	r18, Y+6	; 0x06
    22d4:	3f 81       	ldd	r19, Y+7	; 0x07
    22d6:	8c 81       	ldd	r24, Y+4	; 0x04
    22d8:	9d 81       	ldd	r25, Y+5	; 0x05
    22da:	28 17       	cp	r18, r24
    22dc:	39 07       	cpc	r19, r25
    22de:	64 f4       	brge	.+24     	; 0x22f8 <fputc+0x3c>
    22e0:	e8 81       	ld	r30, Y
    22e2:	f9 81       	ldd	r31, Y+1	; 0x01
    22e4:	01 93       	st	Z+, r16
    22e6:	f9 83       	std	Y+1, r31	; 0x01
    22e8:	e8 83       	st	Y, r30
    22ea:	06 c0       	rjmp	.+12     	; 0x22f8 <fputc+0x3c>
    22ec:	e8 85       	ldd	r30, Y+8	; 0x08
    22ee:	f9 85       	ldd	r31, Y+9	; 0x09
    22f0:	80 2f       	mov	r24, r16
    22f2:	09 95       	icall
    22f4:	89 2b       	or	r24, r25
    22f6:	31 f4       	brne	.+12     	; 0x2304 <fputc+0x48>
    22f8:	8e 81       	ldd	r24, Y+6	; 0x06
    22fa:	9f 81       	ldd	r25, Y+7	; 0x07
    22fc:	01 96       	adiw	r24, 0x01	; 1
    22fe:	9f 83       	std	Y+7, r25	; 0x07
    2300:	8e 83       	std	Y+6, r24	; 0x06
    2302:	02 c0       	rjmp	.+4      	; 0x2308 <fputc+0x4c>
    2304:	0f ef       	ldi	r16, 0xFF	; 255
    2306:	1f ef       	ldi	r17, 0xFF	; 255
    2308:	c8 01       	movw	r24, r16
    230a:	df 91       	pop	r29
    230c:	cf 91       	pop	r28
    230e:	1f 91       	pop	r17
    2310:	0f 91       	pop	r16
    2312:	08 95       	ret

00002314 <puts>:
    2314:	0f 93       	push	r16
    2316:	1f 93       	push	r17
    2318:	cf 93       	push	r28
    231a:	df 93       	push	r29
    231c:	8c 01       	movw	r16, r24
    231e:	e0 91 3a 02 	lds	r30, 0x023A
    2322:	f0 91 3b 02 	lds	r31, 0x023B
    2326:	83 81       	ldd	r24, Z+3	; 0x03
    2328:	81 ff       	sbrs	r24, 1
    232a:	21 c0       	rjmp	.+66     	; 0x236e <puts+0x5a>
    232c:	c0 e0       	ldi	r28, 0x00	; 0
    232e:	d0 e0       	ldi	r29, 0x00	; 0
    2330:	0d c0       	rjmp	.+26     	; 0x234c <puts+0x38>
    2332:	e0 91 3a 02 	lds	r30, 0x023A
    2336:	f0 91 3b 02 	lds	r31, 0x023B
    233a:	20 85       	ldd	r18, Z+8	; 0x08
    233c:	31 85       	ldd	r19, Z+9	; 0x09
    233e:	bf 01       	movw	r22, r30
    2340:	f9 01       	movw	r30, r18
    2342:	09 95       	icall
    2344:	89 2b       	or	r24, r25
    2346:	11 f0       	breq	.+4      	; 0x234c <puts+0x38>
    2348:	cf ef       	ldi	r28, 0xFF	; 255
    234a:	df ef       	ldi	r29, 0xFF	; 255
    234c:	f8 01       	movw	r30, r16
    234e:	81 91       	ld	r24, Z+
    2350:	8f 01       	movw	r16, r30
    2352:	88 23       	and	r24, r24
    2354:	71 f7       	brne	.-36     	; 0x2332 <puts+0x1e>
    2356:	e0 91 3a 02 	lds	r30, 0x023A
    235a:	f0 91 3b 02 	lds	r31, 0x023B
    235e:	20 85       	ldd	r18, Z+8	; 0x08
    2360:	31 85       	ldd	r19, Z+9	; 0x09
    2362:	8a e0       	ldi	r24, 0x0A	; 10
    2364:	bf 01       	movw	r22, r30
    2366:	f9 01       	movw	r30, r18
    2368:	09 95       	icall
    236a:	89 2b       	or	r24, r25
    236c:	11 f0       	breq	.+4      	; 0x2372 <puts+0x5e>
    236e:	cf ef       	ldi	r28, 0xFF	; 255
    2370:	df ef       	ldi	r29, 0xFF	; 255
    2372:	ce 01       	movw	r24, r28
    2374:	df 91       	pop	r29
    2376:	cf 91       	pop	r28
    2378:	1f 91       	pop	r17
    237a:	0f 91       	pop	r16
    237c:	08 95       	ret

0000237e <ungetc>:
    237e:	9c 01       	movw	r18, r24
    2380:	fb 01       	movw	r30, r22
    2382:	83 81       	ldd	r24, Z+3	; 0x03
    2384:	80 ff       	sbrs	r24, 0
    2386:	11 c0       	rjmp	.+34     	; 0x23aa <ungetc+0x2c>
    2388:	86 fd       	sbrc	r24, 6
    238a:	0f c0       	rjmp	.+30     	; 0x23aa <ungetc+0x2c>
    238c:	9f ef       	ldi	r25, 0xFF	; 255
    238e:	2f 3f       	cpi	r18, 0xFF	; 255
    2390:	39 07       	cpc	r19, r25
    2392:	59 f0       	breq	.+22     	; 0x23aa <ungetc+0x2c>
    2394:	22 83       	std	Z+2, r18	; 0x02
    2396:	80 64       	ori	r24, 0x40	; 64
    2398:	8f 7d       	andi	r24, 0xDF	; 223
    239a:	83 83       	std	Z+3, r24	; 0x03
    239c:	86 81       	ldd	r24, Z+6	; 0x06
    239e:	97 81       	ldd	r25, Z+7	; 0x07
    23a0:	01 97       	sbiw	r24, 0x01	; 1
    23a2:	97 83       	std	Z+7, r25	; 0x07
    23a4:	86 83       	std	Z+6, r24	; 0x06
    23a6:	30 e0       	ldi	r19, 0x00	; 0
    23a8:	02 c0       	rjmp	.+4      	; 0x23ae <ungetc+0x30>
    23aa:	2f ef       	ldi	r18, 0xFF	; 255
    23ac:	3f ef       	ldi	r19, 0xFF	; 255
    23ae:	c9 01       	movw	r24, r18
    23b0:	08 95       	ret

000023b2 <__ultoa_invert>:
    23b2:	fa 01       	movw	r30, r20
    23b4:	aa 27       	eor	r26, r26
    23b6:	28 30       	cpi	r18, 0x08	; 8
    23b8:	51 f1       	breq	.+84     	; 0x240e <__ultoa_invert+0x5c>
    23ba:	20 31       	cpi	r18, 0x10	; 16
    23bc:	81 f1       	breq	.+96     	; 0x241e <__ultoa_invert+0x6c>
    23be:	e8 94       	clt
    23c0:	6f 93       	push	r22
    23c2:	6e 7f       	andi	r22, 0xFE	; 254
    23c4:	6e 5f       	subi	r22, 0xFE	; 254
    23c6:	7f 4f       	sbci	r23, 0xFF	; 255
    23c8:	8f 4f       	sbci	r24, 0xFF	; 255
    23ca:	9f 4f       	sbci	r25, 0xFF	; 255
    23cc:	af 4f       	sbci	r26, 0xFF	; 255
    23ce:	b1 e0       	ldi	r27, 0x01	; 1
    23d0:	3e d0       	rcall	.+124    	; 0x244e <__ultoa_invert+0x9c>
    23d2:	b4 e0       	ldi	r27, 0x04	; 4
    23d4:	3c d0       	rcall	.+120    	; 0x244e <__ultoa_invert+0x9c>
    23d6:	67 0f       	add	r22, r23
    23d8:	78 1f       	adc	r23, r24
    23da:	89 1f       	adc	r24, r25
    23dc:	9a 1f       	adc	r25, r26
    23de:	a1 1d       	adc	r26, r1
    23e0:	68 0f       	add	r22, r24
    23e2:	79 1f       	adc	r23, r25
    23e4:	8a 1f       	adc	r24, r26
    23e6:	91 1d       	adc	r25, r1
    23e8:	a1 1d       	adc	r26, r1
    23ea:	6a 0f       	add	r22, r26
    23ec:	71 1d       	adc	r23, r1
    23ee:	81 1d       	adc	r24, r1
    23f0:	91 1d       	adc	r25, r1
    23f2:	a1 1d       	adc	r26, r1
    23f4:	20 d0       	rcall	.+64     	; 0x2436 <__ultoa_invert+0x84>
    23f6:	09 f4       	brne	.+2      	; 0x23fa <__ultoa_invert+0x48>
    23f8:	68 94       	set
    23fa:	3f 91       	pop	r19
    23fc:	2a e0       	ldi	r18, 0x0A	; 10
    23fe:	26 9f       	mul	r18, r22
    2400:	11 24       	eor	r1, r1
    2402:	30 19       	sub	r19, r0
    2404:	30 5d       	subi	r19, 0xD0	; 208
    2406:	31 93       	st	Z+, r19
    2408:	de f6       	brtc	.-74     	; 0x23c0 <__ultoa_invert+0xe>
    240a:	cf 01       	movw	r24, r30
    240c:	08 95       	ret
    240e:	46 2f       	mov	r20, r22
    2410:	47 70       	andi	r20, 0x07	; 7
    2412:	40 5d       	subi	r20, 0xD0	; 208
    2414:	41 93       	st	Z+, r20
    2416:	b3 e0       	ldi	r27, 0x03	; 3
    2418:	0f d0       	rcall	.+30     	; 0x2438 <__ultoa_invert+0x86>
    241a:	c9 f7       	brne	.-14     	; 0x240e <__ultoa_invert+0x5c>
    241c:	f6 cf       	rjmp	.-20     	; 0x240a <__ultoa_invert+0x58>
    241e:	46 2f       	mov	r20, r22
    2420:	4f 70       	andi	r20, 0x0F	; 15
    2422:	40 5d       	subi	r20, 0xD0	; 208
    2424:	4a 33       	cpi	r20, 0x3A	; 58
    2426:	18 f0       	brcs	.+6      	; 0x242e <__ultoa_invert+0x7c>
    2428:	49 5d       	subi	r20, 0xD9	; 217
    242a:	31 fd       	sbrc	r19, 1
    242c:	40 52       	subi	r20, 0x20	; 32
    242e:	41 93       	st	Z+, r20
    2430:	02 d0       	rcall	.+4      	; 0x2436 <__ultoa_invert+0x84>
    2432:	a9 f7       	brne	.-22     	; 0x241e <__ultoa_invert+0x6c>
    2434:	ea cf       	rjmp	.-44     	; 0x240a <__ultoa_invert+0x58>
    2436:	b4 e0       	ldi	r27, 0x04	; 4
    2438:	a6 95       	lsr	r26
    243a:	97 95       	ror	r25
    243c:	87 95       	ror	r24
    243e:	77 95       	ror	r23
    2440:	67 95       	ror	r22
    2442:	ba 95       	dec	r27
    2444:	c9 f7       	brne	.-14     	; 0x2438 <__ultoa_invert+0x86>
    2446:	00 97       	sbiw	r24, 0x00	; 0
    2448:	61 05       	cpc	r22, r1
    244a:	71 05       	cpc	r23, r1
    244c:	08 95       	ret
    244e:	9b 01       	movw	r18, r22
    2450:	ac 01       	movw	r20, r24
    2452:	0a 2e       	mov	r0, r26
    2454:	06 94       	lsr	r0
    2456:	57 95       	ror	r21
    2458:	47 95       	ror	r20
    245a:	37 95       	ror	r19
    245c:	27 95       	ror	r18
    245e:	ba 95       	dec	r27
    2460:	c9 f7       	brne	.-14     	; 0x2454 <__ultoa_invert+0xa2>
    2462:	62 0f       	add	r22, r18
    2464:	73 1f       	adc	r23, r19
    2466:	84 1f       	adc	r24, r20
    2468:	95 1f       	adc	r25, r21
    246a:	a0 1d       	adc	r26, r0
    246c:	08 95       	ret

0000246e <__ctype_isfalse>:
    246e:	99 27       	eor	r25, r25
    2470:	88 27       	eor	r24, r24

00002472 <__ctype_istrue>:
    2472:	08 95       	ret

00002474 <_exit>:
    2474:	f8 94       	cli

00002476 <__stop_program>:
    2476:	ff cf       	rjmp	.-2      	; 0x2476 <__stop_program>
